

Microchip Technology PIC LITE Macro Assembler V1.42 build -159332390 
                                                                                               Thu Oct 04 22:52:18 2018

Microchip Technology Omniscient Code Generator v1.42 (Free mode) build 201704130522
     1                           	processor	16F1455
     2                           	opt	pw 120
     3                           	opt	lm
     4                           	psect	cinit,global,class=CODE,merge=1,delta=2
     5                           	psect	bssBANK0,global,class=BANK0,space=1,delta=1
     6                           	psect	cstackCOMMON,global,class=COMMON,space=1,delta=1
     7                           	psect	cstackBANK0,global,class=BANK0,space=1,delta=1
     8                           	psect	maintext,global,class=CODE,merge=1,split=1,delta=2
     9                           	psect	text1,local,class=CODE,merge=1,delta=2,group=1
    10                           	psect	text2,local,class=CODE,merge=1,delta=2,group=1
    11                           	psect	text3,local,class=CODE,merge=1,delta=2,group=1
    12                           	psect	text4,local,class=CODE,merge=1,delta=2,group=1
    13                           	psect	text5,local,class=CODE,merge=1,delta=2,group=1
    14                           	psect	text6,local,class=CODE,merge=1,delta=2
    15                           	psect	text7,local,class=CODE,merge=1,delta=2
    16                           	psect	text8,local,class=CODE,merge=1,delta=2
    17                           	psect	text9,local,class=CODE,merge=1,delta=2
    18                           	psect	text10,local,class=CODE,merge=1,delta=2
    19                           	psect	text11,local,class=CODE,merge=1,delta=2
    20                           	psect	text12,local,class=CODE,merge=1,delta=2
    21                           	psect	text13,local,class=CODE,merge=1,delta=2
    22                           	psect	text14,local,class=CODE,merge=1,delta=2
    23                           	psect	text15,local,class=CODE,merge=1,delta=2
    24                           	psect	text16,local,class=CODE,merge=1,delta=2
    25                           	psect	text17,local,class=CODE,merge=1,delta=2
    26                           	dabs	1,0x7E,2
    27  0000                     
    28                           ; Version 1.42
    29                           ; Generated 13/04/2017 GMT
    30                           ; 
    31                           ; Copyright © 2017, Microchip Technology Inc. and its subsidiaries ("Microchip")
    32                           ; All rights reserved.
    33                           ; 
    34                           ; This software is developed by Microchip Technology Inc. and its subsidiaries ("Microch
      +                          ip").
    35                           ; 
    36                           ; Redistribution and use in source and binary forms, with or without modification, are
    37                           ; permitted provided that the following conditions are met:
    38                           ; 
    39                           ;     1. Redistributions of source code must retain the above copyright notice, this lis
      +                          t of
    40                           ;        conditions and the following disclaimer.
    41                           ; 
    42                           ;     2. Redistributions in binary form must reproduce the above copyright notice, this 
      +                          list
    43                           ;        of conditions and the following disclaimer in the documentation and/or other
    44                           ;        materials provided with the distribution.
    45                           ; 
    46                           ;     3. Microchip's name may not be used to endorse or promote products derived from th
      +                          is
    47                           ;        software without specific prior written permission.
    48                           ; 
    49                           ; THIS SOFTWARE IS PROVIDED BY MICROCHIP "AS IS" AND ANY EXPRESS OR IMPLIED WARRANTIES,
    50                           ; INCLUDING, BUT NOT LIMITED TO, THE IMPLIED WARRANTIES OF MERCHANTABILITY AND FITNESS F
      +                          OR
    51                           ; PURPOSE ARE DISCLAIMED.  IN NO EVENT SHALL MICROCHIP BE LIABLE FOR ANY DIRECT, INDIREC
      +                          T,
    52                           ; INCIDENTAL, SPECIAL, EXEMPLARY, OR CONSEQUENTIAL DAMAGES (INCLUDING BUT NOT LIMITED TO
    53                           ; PROCUREMENT OF SUBSTITUTE GOODS OR SERVICES; LOSS OF USE, DATA OR PROFITS; OR BUSINESS
    54                           ; INTERRUPTION) HOWSOEVER CAUSED AND ON ANY THEORY OF LIABILITY, WHETHER IN CONTRACT, ST
      +                          RICT
    55                           ; LIABILITY, OR TORT (INCLUDING NEGLIGENCE OR OTHERWISE) ARISING IN ANY WAY OUT OF THE U
      +                          SE OF
    56                           ; THIS SOFTWARE, EVEN IF ADVISED OF THE POSSIBILITY OF SUCH DAMAGE.
    57                           ; 
    58                           ; 
    59                           ; Code-generator required, PIC16F1455 Definitions
    60                           ; 
    61                           ; SFR Addresses
    62  0000                     	;# 
    63  0001                     	;# 
    64  0002                     	;# 
    65  0003                     	;# 
    66  0004                     	;# 
    67  0005                     	;# 
    68  0006                     	;# 
    69  0007                     	;# 
    70  0008                     	;# 
    71  0009                     	;# 
    72  000A                     	;# 
    73  000B                     	;# 
    74  000C                     	;# 
    75  000E                     	;# 
    76  0011                     	;# 
    77  0012                     	;# 
    78  0015                     	;# 
    79  0016                     	;# 
    80  0016                     	;# 
    81  0017                     	;# 
    82  0018                     	;# 
    83  0019                     	;# 
    84  001A                     	;# 
    85  001B                     	;# 
    86  001C                     	;# 
    87  008C                     	;# 
    88  008E                     	;# 
    89  0091                     	;# 
    90  0092                     	;# 
    91  0095                     	;# 
    92  0096                     	;# 
    93  0097                     	;# 
    94  0098                     	;# 
    95  0099                     	;# 
    96  009A                     	;# 
    97  009B                     	;# 
    98  009B                     	;# 
    99  009C                     	;# 
   100  009D                     	;# 
   101  009E                     	;# 
   102  009F                     	;# 
   103  010C                     	;# 
   104  010E                     	;# 
   105  0111                     	;# 
   106  0112                     	;# 
   107  0113                     	;# 
   108  0114                     	;# 
   109  0115                     	;# 
   110  0116                     	;# 
   111  0117                     	;# 
   112  0118                     	;# 
   113  0119                     	;# 
   114  011D                     	;# 
   115  018C                     	;# 
   116  018E                     	;# 
   117  0191                     	;# 
   118  0191                     	;# 
   119  0192                     	;# 
   120  0193                     	;# 
   121  0193                     	;# 
   122  0194                     	;# 
   123  0195                     	;# 
   124  0196                     	;# 
   125  0197                     	;# 
   126  0199                     	;# 
   127  019A                     	;# 
   128  019B                     	;# 
   129  019B                     	;# 
   130  019C                     	;# 
   131  019D                     	;# 
   132  019E                     	;# 
   133  019F                     	;# 
   134  020C                     	;# 
   135  0211                     	;# 
   136  0211                     	;# 
   137  0212                     	;# 
   138  0212                     	;# 
   139  0213                     	;# 
   140  0213                     	;# 
   141  0214                     	;# 
   142  0214                     	;# 
   143  0215                     	;# 
   144  0215                     	;# 
   145  0215                     	;# 
   146  0216                     	;# 
   147  0216                     	;# 
   148  0217                     	;# 
   149  0217                     	;# 
   150  0391                     	;# 
   151  0392                     	;# 
   152  0393                     	;# 
   153  039A                     	;# 
   154  039B                     	;# 
   155  0611                     	;# 
   156  0612                     	;# 
   157  0613                     	;# 
   158  0613                     	;# 
   159  0614                     	;# 
   160  0615                     	;# 
   161  0616                     	;# 
   162  0616                     	;# 
   163  0691                     	;# 
   164  0692                     	;# 
   165  0693                     	;# 
   166  0694                     	;# 
   167  0695                     	;# 
   168  0E8E                     	;# 
   169  0E8F                     	;# 
   170  0E90                     	;# 
   171  0E91                     	;# 
   172  0E92                     	;# 
   173  0E93                     	;# 
   174  0E94                     	;# 
   175  0E94                     	;# 
   176  0E95                     	;# 
   177  0E96                     	;# 
   178  0E97                     	;# 
   179  0E98                     	;# 
   180  0E99                     	;# 
   181  0E9A                     	;# 
   182  0E9B                     	;# 
   183  0E9C                     	;# 
   184  0E9D                     	;# 
   185  0E9E                     	;# 
   186  0E9F                     	;# 
   187  0FE4                     	;# 
   188  0FE5                     	;# 
   189  0FE6                     	;# 
   190  0FE7                     	;# 
   191  0FE8                     	;# 
   192  0FE9                     	;# 
   193  0FEA                     	;# 
   194  0FEB                     	;# 
   195  0FED                     	;# 
   196  0FEE                     	;# 
   197  0FEF                     	;# 
   198  0000                     	;# 
   199  0001                     	;# 
   200  0002                     	;# 
   201  0003                     	;# 
   202  0004                     	;# 
   203  0005                     	;# 
   204  0006                     	;# 
   205  0007                     	;# 
   206  0008                     	;# 
   207  0009                     	;# 
   208  000A                     	;# 
   209  000B                     	;# 
   210  000C                     	;# 
   211  000E                     	;# 
   212  0011                     	;# 
   213  0012                     	;# 
   214  0015                     	;# 
   215  0016                     	;# 
   216  0016                     	;# 
   217  0017                     	;# 
   218  0018                     	;# 
   219  0019                     	;# 
   220  001A                     	;# 
   221  001B                     	;# 
   222  001C                     	;# 
   223  008C                     	;# 
   224  008E                     	;# 
   225  0091                     	;# 
   226  0092                     	;# 
   227  0095                     	;# 
   228  0096                     	;# 
   229  0097                     	;# 
   230  0098                     	;# 
   231  0099                     	;# 
   232  009A                     	;# 
   233  009B                     	;# 
   234  009B                     	;# 
   235  009C                     	;# 
   236  009D                     	;# 
   237  009E                     	;# 
   238  009F                     	;# 
   239  010C                     	;# 
   240  010E                     	;# 
   241  0111                     	;# 
   242  0112                     	;# 
   243  0113                     	;# 
   244  0114                     	;# 
   245  0115                     	;# 
   246  0116                     	;# 
   247  0117                     	;# 
   248  0118                     	;# 
   249  0119                     	;# 
   250  011D                     	;# 
   251  018C                     	;# 
   252  018E                     	;# 
   253  0191                     	;# 
   254  0191                     	;# 
   255  0192                     	;# 
   256  0193                     	;# 
   257  0193                     	;# 
   258  0194                     	;# 
   259  0195                     	;# 
   260  0196                     	;# 
   261  0197                     	;# 
   262  0199                     	;# 
   263  019A                     	;# 
   264  019B                     	;# 
   265  019B                     	;# 
   266  019C                     	;# 
   267  019D                     	;# 
   268  019E                     	;# 
   269  019F                     	;# 
   270  020C                     	;# 
   271  0211                     	;# 
   272  0211                     	;# 
   273  0212                     	;# 
   274  0212                     	;# 
   275  0213                     	;# 
   276  0213                     	;# 
   277  0214                     	;# 
   278  0214                     	;# 
   279  0215                     	;# 
   280  0215                     	;# 
   281  0215                     	;# 
   282  0216                     	;# 
   283  0216                     	;# 
   284  0217                     	;# 
   285  0217                     	;# 
   286  0391                     	;# 
   287  0392                     	;# 
   288  0393                     	;# 
   289  039A                     	;# 
   290  039B                     	;# 
   291  0611                     	;# 
   292  0612                     	;# 
   293  0613                     	;# 
   294  0613                     	;# 
   295  0614                     	;# 
   296  0615                     	;# 
   297  0616                     	;# 
   298  0616                     	;# 
   299  0691                     	;# 
   300  0692                     	;# 
   301  0693                     	;# 
   302  0694                     	;# 
   303  0695                     	;# 
   304  0E8E                     	;# 
   305  0E8F                     	;# 
   306  0E90                     	;# 
   307  0E91                     	;# 
   308  0E92                     	;# 
   309  0E93                     	;# 
   310  0E94                     	;# 
   311  0E94                     	;# 
   312  0E95                     	;# 
   313  0E96                     	;# 
   314  0E97                     	;# 
   315  0E98                     	;# 
   316  0E99                     	;# 
   317  0E9A                     	;# 
   318  0E9B                     	;# 
   319  0E9C                     	;# 
   320  0E9D                     	;# 
   321  0E9E                     	;# 
   322  0E9F                     	;# 
   323  0FE4                     	;# 
   324  0FE5                     	;# 
   325  0FE6                     	;# 
   326  0FE7                     	;# 
   327  0FE8                     	;# 
   328  0FE9                     	;# 
   329  0FEA                     	;# 
   330  0FEB                     	;# 
   331  0FED                     	;# 
   332  0FEE                     	;# 
   333  0FEF                     	;# 
   334  0000                     	;# 
   335  0001                     	;# 
   336  0002                     	;# 
   337  0003                     	;# 
   338  0004                     	;# 
   339  0005                     	;# 
   340  0006                     	;# 
   341  0007                     	;# 
   342  0008                     	;# 
   343  0009                     	;# 
   344  000A                     	;# 
   345  000B                     	;# 
   346  000C                     	;# 
   347  000E                     	;# 
   348  0011                     	;# 
   349  0012                     	;# 
   350  0015                     	;# 
   351  0016                     	;# 
   352  0016                     	;# 
   353  0017                     	;# 
   354  0018                     	;# 
   355  0019                     	;# 
   356  001A                     	;# 
   357  001B                     	;# 
   358  001C                     	;# 
   359  008C                     	;# 
   360  008E                     	;# 
   361  0091                     	;# 
   362  0092                     	;# 
   363  0095                     	;# 
   364  0096                     	;# 
   365  0097                     	;# 
   366  0098                     	;# 
   367  0099                     	;# 
   368  009A                     	;# 
   369  009B                     	;# 
   370  009B                     	;# 
   371  009C                     	;# 
   372  009D                     	;# 
   373  009E                     	;# 
   374  009F                     	;# 
   375  010C                     	;# 
   376  010E                     	;# 
   377  0111                     	;# 
   378  0112                     	;# 
   379  0113                     	;# 
   380  0114                     	;# 
   381  0115                     	;# 
   382  0116                     	;# 
   383  0117                     	;# 
   384  0118                     	;# 
   385  0119                     	;# 
   386  011D                     	;# 
   387  018C                     	;# 
   388  018E                     	;# 
   389  0191                     	;# 
   390  0191                     	;# 
   391  0192                     	;# 
   392  0193                     	;# 
   393  0193                     	;# 
   394  0194                     	;# 
   395  0195                     	;# 
   396  0196                     	;# 
   397  0197                     	;# 
   398  0199                     	;# 
   399  019A                     	;# 
   400  019B                     	;# 
   401  019B                     	;# 
   402  019C                     	;# 
   403  019D                     	;# 
   404  019E                     	;# 
   405  019F                     	;# 
   406  020C                     	;# 
   407  0211                     	;# 
   408  0211                     	;# 
   409  0212                     	;# 
   410  0212                     	;# 
   411  0213                     	;# 
   412  0213                     	;# 
   413  0214                     	;# 
   414  0214                     	;# 
   415  0215                     	;# 
   416  0215                     	;# 
   417  0215                     	;# 
   418  0216                     	;# 
   419  0216                     	;# 
   420  0217                     	;# 
   421  0217                     	;# 
   422  0391                     	;# 
   423  0392                     	;# 
   424  0393                     	;# 
   425  039A                     	;# 
   426  039B                     	;# 
   427  0611                     	;# 
   428  0612                     	;# 
   429  0613                     	;# 
   430  0613                     	;# 
   431  0614                     	;# 
   432  0615                     	;# 
   433  0616                     	;# 
   434  0616                     	;# 
   435  0691                     	;# 
   436  0692                     	;# 
   437  0693                     	;# 
   438  0694                     	;# 
   439  0695                     	;# 
   440  0E8E                     	;# 
   441  0E8F                     	;# 
   442  0E90                     	;# 
   443  0E91                     	;# 
   444  0E92                     	;# 
   445  0E93                     	;# 
   446  0E94                     	;# 
   447  0E94                     	;# 
   448  0E95                     	;# 
   449  0E96                     	;# 
   450  0E97                     	;# 
   451  0E98                     	;# 
   452  0E99                     	;# 
   453  0E9A                     	;# 
   454  0E9B                     	;# 
   455  0E9C                     	;# 
   456  0E9D                     	;# 
   457  0E9E                     	;# 
   458  0E9F                     	;# 
   459  0FE4                     	;# 
   460  0FE5                     	;# 
   461  0FE6                     	;# 
   462  0FE7                     	;# 
   463  0FE8                     	;# 
   464  0FE9                     	;# 
   465  0FEA                     	;# 
   466  0FEB                     	;# 
   467  0FED                     	;# 
   468  0FEE                     	;# 
   469  0FEF                     	;# 
   470  0000                     	;# 
   471  0001                     	;# 
   472  0002                     	;# 
   473  0003                     	;# 
   474  0004                     	;# 
   475  0005                     	;# 
   476  0006                     	;# 
   477  0007                     	;# 
   478  0008                     	;# 
   479  0009                     	;# 
   480  000A                     	;# 
   481  000B                     	;# 
   482  000C                     	;# 
   483  000E                     	;# 
   484  0011                     	;# 
   485  0012                     	;# 
   486  0015                     	;# 
   487  0016                     	;# 
   488  0016                     	;# 
   489  0017                     	;# 
   490  0018                     	;# 
   491  0019                     	;# 
   492  001A                     	;# 
   493  001B                     	;# 
   494  001C                     	;# 
   495  008C                     	;# 
   496  008E                     	;# 
   497  0091                     	;# 
   498  0092                     	;# 
   499  0095                     	;# 
   500  0096                     	;# 
   501  0097                     	;# 
   502  0098                     	;# 
   503  0099                     	;# 
   504  009A                     	;# 
   505  009B                     	;# 
   506  009B                     	;# 
   507  009C                     	;# 
   508  009D                     	;# 
   509  009E                     	;# 
   510  009F                     	;# 
   511  010C                     	;# 
   512  010E                     	;# 
   513  0111                     	;# 
   514  0112                     	;# 
   515  0113                     	;# 
   516  0114                     	;# 
   517  0115                     	;# 
   518  0116                     	;# 
   519  0117                     	;# 
   520  0118                     	;# 
   521  0119                     	;# 
   522  011D                     	;# 
   523  018C                     	;# 
   524  018E                     	;# 
   525  0191                     	;# 
   526  0191                     	;# 
   527  0192                     	;# 
   528  0193                     	;# 
   529  0193                     	;# 
   530  0194                     	;# 
   531  0195                     	;# 
   532  0196                     	;# 
   533  0197                     	;# 
   534  0199                     	;# 
   535  019A                     	;# 
   536  019B                     	;# 
   537  019B                     	;# 
   538  019C                     	;# 
   539  019D                     	;# 
   540  019E                     	;# 
   541  019F                     	;# 
   542  020C                     	;# 
   543  0211                     	;# 
   544  0211                     	;# 
   545  0212                     	;# 
   546  0212                     	;# 
   547  0213                     	;# 
   548  0213                     	;# 
   549  0214                     	;# 
   550  0214                     	;# 
   551  0215                     	;# 
   552  0215                     	;# 
   553  0215                     	;# 
   554  0216                     	;# 
   555  0216                     	;# 
   556  0217                     	;# 
   557  0217                     	;# 
   558  0391                     	;# 
   559  0392                     	;# 
   560  0393                     	;# 
   561  039A                     	;# 
   562  039B                     	;# 
   563  0611                     	;# 
   564  0612                     	;# 
   565  0613                     	;# 
   566  0613                     	;# 
   567  0614                     	;# 
   568  0615                     	;# 
   569  0616                     	;# 
   570  0616                     	;# 
   571  0691                     	;# 
   572  0692                     	;# 
   573  0693                     	;# 
   574  0694                     	;# 
   575  0695                     	;# 
   576  0E8E                     	;# 
   577  0E8F                     	;# 
   578  0E90                     	;# 
   579  0E91                     	;# 
   580  0E92                     	;# 
   581  0E93                     	;# 
   582  0E94                     	;# 
   583  0E94                     	;# 
   584  0E95                     	;# 
   585  0E96                     	;# 
   586  0E97                     	;# 
   587  0E98                     	;# 
   588  0E99                     	;# 
   589  0E9A                     	;# 
   590  0E9B                     	;# 
   591  0E9C                     	;# 
   592  0E9D                     	;# 
   593  0E9E                     	;# 
   594  0E9F                     	;# 
   595  0FE4                     	;# 
   596  0FE5                     	;# 
   597  0FE6                     	;# 
   598  0FE7                     	;# 
   599  0FE8                     	;# 
   600  0FE9                     	;# 
   601  0FEA                     	;# 
   602  0FEB                     	;# 
   603  0FED                     	;# 
   604  0FEE                     	;# 
   605  0FEF                     	;# 
   606  0000                     	;# 
   607  0001                     	;# 
   608  0002                     	;# 
   609  0003                     	;# 
   610  0004                     	;# 
   611  0005                     	;# 
   612  0006                     	;# 
   613  0007                     	;# 
   614  0008                     	;# 
   615  0009                     	;# 
   616  000A                     	;# 
   617  000B                     	;# 
   618  000C                     	;# 
   619  000E                     	;# 
   620  0011                     	;# 
   621  0012                     	;# 
   622  0015                     	;# 
   623  0016                     	;# 
   624  0016                     	;# 
   625  0017                     	;# 
   626  0018                     	;# 
   627  0019                     	;# 
   628  001A                     	;# 
   629  001B                     	;# 
   630  001C                     	;# 
   631  008C                     	;# 
   632  008E                     	;# 
   633  0091                     	;# 
   634  0092                     	;# 
   635  0095                     	;# 
   636  0096                     	;# 
   637  0097                     	;# 
   638  0098                     	;# 
   639  0099                     	;# 
   640  009A                     	;# 
   641  009B                     	;# 
   642  009B                     	;# 
   643  009C                     	;# 
   644  009D                     	;# 
   645  009E                     	;# 
   646  009F                     	;# 
   647  010C                     	;# 
   648  010E                     	;# 
   649  0111                     	;# 
   650  0112                     	;# 
   651  0113                     	;# 
   652  0114                     	;# 
   653  0115                     	;# 
   654  0116                     	;# 
   655  0117                     	;# 
   656  0118                     	;# 
   657  0119                     	;# 
   658  011D                     	;# 
   659  018C                     	;# 
   660  018E                     	;# 
   661  0191                     	;# 
   662  0191                     	;# 
   663  0192                     	;# 
   664  0193                     	;# 
   665  0193                     	;# 
   666  0194                     	;# 
   667  0195                     	;# 
   668  0196                     	;# 
   669  0197                     	;# 
   670  0199                     	;# 
   671  019A                     	;# 
   672  019B                     	;# 
   673  019B                     	;# 
   674  019C                     	;# 
   675  019D                     	;# 
   676  019E                     	;# 
   677  019F                     	;# 
   678  020C                     	;# 
   679  0211                     	;# 
   680  0211                     	;# 
   681  0212                     	;# 
   682  0212                     	;# 
   683  0213                     	;# 
   684  0213                     	;# 
   685  0214                     	;# 
   686  0214                     	;# 
   687  0215                     	;# 
   688  0215                     	;# 
   689  0215                     	;# 
   690  0216                     	;# 
   691  0216                     	;# 
   692  0217                     	;# 
   693  0217                     	;# 
   694  0391                     	;# 
   695  0392                     	;# 
   696  0393                     	;# 
   697  039A                     	;# 
   698  039B                     	;# 
   699  0611                     	;# 
   700  0612                     	;# 
   701  0613                     	;# 
   702  0613                     	;# 
   703  0614                     	;# 
   704  0615                     	;# 
   705  0616                     	;# 
   706  0616                     	;# 
   707  0691                     	;# 
   708  0692                     	;# 
   709  0693                     	;# 
   710  0694                     	;# 
   711  0695                     	;# 
   712  0E8E                     	;# 
   713  0E8F                     	;# 
   714  0E90                     	;# 
   715  0E91                     	;# 
   716  0E92                     	;# 
   717  0E93                     	;# 
   718  0E94                     	;# 
   719  0E94                     	;# 
   720  0E95                     	;# 
   721  0E96                     	;# 
   722  0E97                     	;# 
   723  0E98                     	;# 
   724  0E99                     	;# 
   725  0E9A                     	;# 
   726  0E9B                     	;# 
   727  0E9C                     	;# 
   728  0E9D                     	;# 
   729  0E9E                     	;# 
   730  0E9F                     	;# 
   731  0FE4                     	;# 
   732  0FE5                     	;# 
   733  0FE6                     	;# 
   734  0FE7                     	;# 
   735  0FE8                     	;# 
   736  0FE9                     	;# 
   737  0FEA                     	;# 
   738  0FEB                     	;# 
   739  0FED                     	;# 
   740  0FEE                     	;# 
   741  0FEF                     	;# 
   742  0000                     	;# 
   743  0001                     	;# 
   744  0002                     	;# 
   745  0003                     	;# 
   746  0004                     	;# 
   747  0005                     	;# 
   748  0006                     	;# 
   749  0007                     	;# 
   750  0008                     	;# 
   751  0009                     	;# 
   752  000A                     	;# 
   753  000B                     	;# 
   754  000C                     	;# 
   755  000E                     	;# 
   756  0011                     	;# 
   757  0012                     	;# 
   758  0015                     	;# 
   759  0016                     	;# 
   760  0016                     	;# 
   761  0017                     	;# 
   762  0018                     	;# 
   763  0019                     	;# 
   764  001A                     	;# 
   765  001B                     	;# 
   766  001C                     	;# 
   767  008C                     	;# 
   768  008E                     	;# 
   769  0091                     	;# 
   770  0092                     	;# 
   771  0095                     	;# 
   772  0096                     	;# 
   773  0097                     	;# 
   774  0098                     	;# 
   775  0099                     	;# 
   776  009A                     	;# 
   777  009B                     	;# 
   778  009B                     	;# 
   779  009C                     	;# 
   780  009D                     	;# 
   781  009E                     	;# 
   782  009F                     	;# 
   783  010C                     	;# 
   784  010E                     	;# 
   785  0111                     	;# 
   786  0112                     	;# 
   787  0113                     	;# 
   788  0114                     	;# 
   789  0115                     	;# 
   790  0116                     	;# 
   791  0117                     	;# 
   792  0118                     	;# 
   793  0119                     	;# 
   794  011D                     	;# 
   795  018C                     	;# 
   796  018E                     	;# 
   797  0191                     	;# 
   798  0191                     	;# 
   799  0192                     	;# 
   800  0193                     	;# 
   801  0193                     	;# 
   802  0194                     	;# 
   803  0195                     	;# 
   804  0196                     	;# 
   805  0197                     	;# 
   806  0199                     	;# 
   807  019A                     	;# 
   808  019B                     	;# 
   809  019B                     	;# 
   810  019C                     	;# 
   811  019D                     	;# 
   812  019E                     	;# 
   813  019F                     	;# 
   814  020C                     	;# 
   815  0211                     	;# 
   816  0211                     	;# 
   817  0212                     	;# 
   818  0212                     	;# 
   819  0213                     	;# 
   820  0213                     	;# 
   821  0214                     	;# 
   822  0214                     	;# 
   823  0215                     	;# 
   824  0215                     	;# 
   825  0215                     	;# 
   826  0216                     	;# 
   827  0216                     	;# 
   828  0217                     	;# 
   829  0217                     	;# 
   830  0391                     	;# 
   831  0392                     	;# 
   832  0393                     	;# 
   833  039A                     	;# 
   834  039B                     	;# 
   835  0611                     	;# 
   836  0612                     	;# 
   837  0613                     	;# 
   838  0613                     	;# 
   839  0614                     	;# 
   840  0615                     	;# 
   841  0616                     	;# 
   842  0616                     	;# 
   843  0691                     	;# 
   844  0692                     	;# 
   845  0693                     	;# 
   846  0694                     	;# 
   847  0695                     	;# 
   848  0E8E                     	;# 
   849  0E8F                     	;# 
   850  0E90                     	;# 
   851  0E91                     	;# 
   852  0E92                     	;# 
   853  0E93                     	;# 
   854  0E94                     	;# 
   855  0E94                     	;# 
   856  0E95                     	;# 
   857  0E96                     	;# 
   858  0E97                     	;# 
   859  0E98                     	;# 
   860  0E99                     	;# 
   861  0E9A                     	;# 
   862  0E9B                     	;# 
   863  0E9C                     	;# 
   864  0E9D                     	;# 
   865  0E9E                     	;# 
   866  0E9F                     	;# 
   867  0FE4                     	;# 
   868  0FE5                     	;# 
   869  0FE6                     	;# 
   870  0FE7                     	;# 
   871  0FE8                     	;# 
   872  0FE9                     	;# 
   873  0FEA                     	;# 
   874  0FEB                     	;# 
   875  0FED                     	;# 
   876  0FEE                     	;# 
   877  0FEF                     	;# 
   878  001C                     _T2CONbits	set	28
   879  001C                     _T2CON	set	28
   880  0011                     _PIR1bits	set	17
   881  001A                     _TMR2	set	26
   882  001B                     _PR2	set	27
   883  0095                     _OPTION_REGbits	set	149
   884  008E                     _TRISC	set	142
   885  008C                     _TRISA	set	140
   886  009D                     _ADCON0bits	set	157
   887  009C                     _ADRESH	set	156
   888  009B                     _ADRESL	set	155
   889  009F                     _ADCON2	set	159
   890  009E                     _ADCON1	set	158
   891  009D                     _ADCON0	set	157
   892  0097                     _WDTCON	set	151
   893  0098                     _OSCTUNE	set	152
   894  0099                     _OSCCON	set	153
   895  011D                     _APFCON	set	285
   896  010E                     _LATC	set	270
   897  010C                     _LATA	set	268
   898  0116                     _BORCON	set	278
   899  018C                     _ANSELA	set	396
   900  018E                     _ANSELC	set	398
   901  020C                     _WPUA	set	524
   902  039B                     _ACTCON	set	923
   903  0611                     _PWM1DCL	set	1553
   904  0612                     _PWM1DCH	set	1554
   905  0613                     _PWM1CON	set	1555
   906                           
   907                           ; #config settings
   908  0000                     
   909                           	psect	cinit
   910  07F6                     start_initialization:	
   911  07F6                     __initialization:	
   912                           
   913                           ; Clear objects allocated to BANK0
   914  07F6  0020               	movlb	0	; select bank0
   915  07F7  01CB               	clrf	__pbssBANK0& (0+127)
   916  07F8  01CC               	clrf	(__pbssBANK0+1)& (0+127)
   917  07F9  01CD               	clrf	(__pbssBANK0+2)& (0+127)
   918  07FA  01CE               	clrf	(__pbssBANK0+3)& (0+127)
   919  07FB  01CF               	clrf	(__pbssBANK0+4)& (0+127)
   920  07FC  01D0               	clrf	(__pbssBANK0+5)& (0+127)
   921  07FD                     end_of_initialization:	
   922                           ;End of C runtime variable initialization code
   923                           
   924  07FD                     __end_of__initialization:	
   925  07FD  0020               	movlb	0
   926  07FE  3185  2DAB         	ljmp	_main	;jump to C main() function
   927                           
   928                           	psect	bssBANK0
   929  004B                     __pbssBANK0:	
   930  004B                     _ValoreADC:	
   931  004B                     	ds	2
   932  004D                     _DUTYC:	
   933  004D                     	ds	2
   934  004F                     _Temp:	
   935  004F                     	ds	2
   936                           
   937                           	psect	cstackCOMMON
   938  0070                     __pcstackCOMMON:	
   939  0070                     ?_PIN_MANAGER_Initialize:	
   940  0070                     ??_PIN_MANAGER_Initialize:	
   941                           ; 1 bytes @ 0x0
   942                           
   943  0070                     ?_OSCILLATOR_Initialize:	
   944                           ; 1 bytes @ 0x0
   945                           
   946  0070                     ??_OSCILLATOR_Initialize:	
   947                           ; 1 bytes @ 0x0
   948                           
   949  0070                     ?_WDT_Initialize:	
   950                           ; 1 bytes @ 0x0
   951                           
   952  0070                     ??_WDT_Initialize:	
   953                           ; 1 bytes @ 0x0
   954                           
   955  0070                     ?_TMR2_Initialize:	
   956                           ; 1 bytes @ 0x0
   957                           
   958  0070                     ??_TMR2_Initialize:	
   959                           ; 1 bytes @ 0x0
   960                           
   961  0070                     ?_ADC_Initialize:	
   962                           ; 1 bytes @ 0x0
   963                           
   964  0070                     ??_ADC_Initialize:	
   965                           ; 1 bytes @ 0x0
   966                           
   967  0070                     ?_PWM1_Initialize:	
   968                           ; 1 bytes @ 0x0
   969                           
   970  0070                     ??_PWM1_Initialize:	
   971                           ; 1 bytes @ 0x0
   972                           
   973  0070                     ?_PWM1_LoadDutyValue:	
   974                           ; 1 bytes @ 0x0
   975                           
   976  0070                     ?_SYSTEM_Initialize:	
   977                           ; 1 bytes @ 0x0
   978                           
   979  0070                     ??_SYSTEM_Initialize:	
   980                           ; 1 bytes @ 0x0
   981                           
   982  0070                     ?_ADC_SelectChannel:	
   983                           ; 1 bytes @ 0x0
   984                           
   985  0070                     ??_ADC_SelectChannel:	
   986                           ; 1 bytes @ 0x0
   987                           
   988  0070                     ?_ADC_StartConversion:	
   989                           ; 1 bytes @ 0x0
   990                           
   991  0070                     ??_ADC_StartConversion:	
   992                           ; 1 bytes @ 0x0
   993                           
   994  0070                     ?_ADC_IsConversionDone:	
   995                           ; 1 bytes @ 0x0
   996                           
   997  0070                     ??_ADC_IsConversionDone:	
   998                           ; 1 bytes @ 0x0
   999                           
  1000  0070                     ?_main:	
  1001                           ; 1 bytes @ 0x0
  1002                           
  1003  0070                     ?_ADC_GetConversionResult:	
  1004                           ; 1 bytes @ 0x0
  1005                           
  1006  0070                     ?___ftpack:	
  1007                           ; 2 bytes @ 0x0
  1008                           
  1009  0070                     PWM1_LoadDutyValue@dutyValue:	
  1010                           ; 3 bytes @ 0x0
  1011                           
  1012  0070                     ___ftpack@arg:	
  1013                           ; 2 bytes @ 0x0
  1014                           
  1015                           
  1016                           ; 3 bytes @ 0x0
  1017  0070                     	ds	1
  1018  0071                     ADC_SelectChannel@channel:	
  1019                           
  1020                           ; 1 bytes @ 0x1
  1021  0071                     	ds	1
  1022  0072                     ??_PWM1_LoadDutyValue:	
  1023  0072                     ??_ADC_GetConversionResult:	
  1024                           ; 1 bytes @ 0x2
  1025                           
  1026                           
  1027                           ; 1 bytes @ 0x2
  1028  0072                     	ds	1
  1029  0073                     ___ftpack@exp:	
  1030                           
  1031                           ; 1 bytes @ 0x3
  1032  0073                     	ds	1
  1033  0074                     ___ftpack@sign:	
  1034                           
  1035                           ; 1 bytes @ 0x4
  1036  0074                     	ds	1
  1037  0075                     ??___ftpack:	
  1038                           
  1039                           ; 1 bytes @ 0x5
  1040  0075                     	ds	3
  1041  0078                     ?___lwtoft:	
  1042  0078                     ___lwtoft@c:	
  1043                           ; 3 bytes @ 0x8
  1044                           
  1045                           
  1046                           ; 2 bytes @ 0x8
  1047  0078                     	ds	3
  1048  007B                     ??___lwtoft:	
  1049                           
  1050                           ; 1 bytes @ 0xB
  1051  007B                     	ds	1
  1052  007C                     ??_main:	
  1053                           
  1054                           ; 1 bytes @ 0xC
  1055  007C                     	ds	2
  1056                           
  1057                           	psect	cstackBANK0
  1058  0020                     __pcstackBANK0:	
  1059  0020                     ?___ftmul:	
  1060  0020                     ___ftmul@f1:	
  1061                           ; 3 bytes @ 0x0
  1062                           
  1063                           
  1064                           ; 3 bytes @ 0x0
  1065  0020                     	ds	3
  1066  0023                     ___ftmul@f2:	
  1067                           
  1068                           ; 3 bytes @ 0x3
  1069  0023                     	ds	3
  1070  0026                     ??___ftmul:	
  1071                           
  1072                           ; 1 bytes @ 0x6
  1073  0026                     	ds	4
  1074  002A                     ___ftmul@exp:	
  1075                           
  1076                           ; 1 bytes @ 0xA
  1077  002A                     	ds	1
  1078  002B                     ___ftmul@f3_as_product:	
  1079                           
  1080                           ; 3 bytes @ 0xB
  1081  002B                     	ds	3
  1082  002E                     ___ftmul@cntr:	
  1083                           
  1084                           ; 1 bytes @ 0xE
  1085  002E                     	ds	1
  1086  002F                     ___ftmul@sign:	
  1087                           
  1088                           ; 1 bytes @ 0xF
  1089  002F                     	ds	1
  1090  0030                     ?___ftadd:	
  1091  0030                     ___ftadd@f1:	
  1092                           ; 3 bytes @ 0x10
  1093                           
  1094                           
  1095                           ; 3 bytes @ 0x10
  1096  0030                     	ds	3
  1097  0033                     ___ftadd@f2:	
  1098                           
  1099                           ; 3 bytes @ 0x13
  1100  0033                     	ds	3
  1101  0036                     ??___ftadd:	
  1102                           
  1103                           ; 1 bytes @ 0x16
  1104  0036                     	ds	4
  1105  003A                     ___ftadd@sign:	
  1106                           
  1107                           ; 1 bytes @ 0x1A
  1108  003A                     	ds	1
  1109  003B                     ___ftadd@exp2:	
  1110                           
  1111                           ; 1 bytes @ 0x1B
  1112  003B                     	ds	1
  1113  003C                     ___ftadd@exp1:	
  1114                           
  1115                           ; 1 bytes @ 0x1C
  1116  003C                     	ds	1
  1117  003D                     ?___fttol:	
  1118  003D                     ___fttol@f1:	
  1119                           ; 4 bytes @ 0x1D
  1120                           
  1121                           
  1122                           ; 3 bytes @ 0x1D
  1123  003D                     	ds	4
  1124  0041                     ??___fttol:	
  1125                           
  1126                           ; 1 bytes @ 0x21
  1127  0041                     	ds	4
  1128  0045                     ___fttol@sign1:	
  1129                           
  1130                           ; 1 bytes @ 0x25
  1131  0045                     	ds	1
  1132  0046                     ___fttol@lval:	
  1133                           
  1134                           ; 4 bytes @ 0x26
  1135  0046                     	ds	4
  1136  004A                     ___fttol@exp1:	
  1137                           
  1138                           ; 1 bytes @ 0x2A
  1139  004A                     	ds	1
  1140                           
  1141                           	psect	maintext
  1142  05AB                     __pmaintext:	
  1143 ;;
  1144 ;;Main: autosize = 0, tempsize = 2, incstack = 0, save=0
  1145 ;;
  1146 ;; *************** function _main *****************
  1147 ;; Defined at:
  1148 ;;		line 54 in file "main.c"
  1149 ;; Parameters:    Size  Location     Type
  1150 ;;		None
  1151 ;; Auto vars:     Size  Location     Type
  1152 ;;		None
  1153 ;; Return value:  Size  Location     Type
  1154 ;;                  1    wreg      void 
  1155 ;; Registers used:
  1156 ;;		wreg, status,2, status,0, pclath, cstack
  1157 ;; Tracked objects:
  1158 ;;		On entry : B1F/0
  1159 ;;		On exit  : 0/0
  1160 ;;		Unchanged: 0/0
  1161 ;; Data sizes:     COMMON   BANK0   BANK1   BANK2   BANK3   BANK4   BANK5   BANK6   BANK7   BANK8   BANK9  BANK10  BANK1
      +1  BANK12
  1162 ;;      Params:         0       0       0       0       0       0       0       0       0       0       0       0       
      +0       0
  1163 ;;      Locals:         0       0       0       0       0       0       0       0       0       0       0       0       
      +0       0
  1164 ;;      Temps:          2       0       0       0       0       0       0       0       0       0       0       0       
      +0       0
  1165 ;;      Totals:         2       0       0       0       0       0       0       0       0       0       0       0       
      +0       0
  1166 ;;Total ram usage:        2 bytes
  1167 ;; Hardware stack levels required when called:    2
  1168 ;; This function calls:
  1169 ;;		_ADC_GetConversionResult
  1170 ;;		_ADC_IsConversionDone
  1171 ;;		_ADC_SelectChannel
  1172 ;;		_ADC_StartConversion
  1173 ;;		_PWM1_LoadDutyValue
  1174 ;;		_SYSTEM_Initialize
  1175 ;;		___ftadd
  1176 ;;		___ftmul
  1177 ;;		___fttol
  1178 ;;		___lwtoft
  1179 ;; This function is called by:
  1180 ;;		Startup code after reset
  1181 ;; This function uses a non-reentrant model
  1182 ;;
  1183                           
  1184                           
  1185                           ;psect for function _main
  1186  05AB                     _main:	
  1187                           
  1188                           ;main.c: 57: SYSTEM_Initialize();
  1189                           
  1190                           ;incstack = 0
  1191                           ; Regs used in _main: [wreg+status,2+status,0+pclath+cstack]
  1192  05AB  3184  2471  3185   	fcall	_SYSTEM_Initialize
  1193                           
  1194                           ;main.c: 58: ADC_SelectChannel(channel_AN3);
  1195  05AE  3003               	movlw	3
  1196  05AF  3184  2464  3185   	fcall	_ADC_SelectChannel
  1197                           
  1198                           ;main.c: 59: PWM1_LoadDutyValue(DUTYC);
  1199  05B2  0020               	movlb	0	; select bank0
  1200  05B3                     L2:	
  1201  05B3  084E               	movf	_DUTYC+1,w
  1202  05B4  00F1               	movwf	PWM1_LoadDutyValue@dutyValue+1
  1203  05B5  084D               	movf	_DUTYC,w
  1204  05B6  00F0               	movwf	PWM1_LoadDutyValue@dutyValue
  1205  05B7  3184  24AA  3185   	fcall	_PWM1_LoadDutyValue
  1206                           
  1207                           ;main.c: 79: if (1){
  1208                           
  1209                           ;main.c: 76: while (1)
  1210  05BA  3003               	movlw	3
  1211  05BB  00FD               	movwf	??_main+1
  1212  05BC  308A               	movlw	138
  1213  05BD  00FC               	movwf	??_main
  1214  05BE  3056               	movlw	86
  1215  05BF                     u1297:	
  1216  05BF  0B89               	decfsz	9,f
  1217  05C0  2DBF               	goto	u1297
  1218  05C1  0BFC               	decfsz	??_main,f
  1219  05C2  2DBF               	goto	u1297
  1220  05C3  0BFD               	decfsz	??_main+1,f
  1221  05C4  2DBF               	goto	u1297
  1222                           
  1223                           ;main.c: 80: ADC_StartConversion();
  1224  05C5  3184  2430  3185   	fcall	_ADC_StartConversion
  1225  05C8                     l1153:	
  1226                           ;main.c: 81: while(!ADC_IsConversionDone());
  1227                           
  1228  05C8  3184  2443  3185   	fcall	_ADC_IsConversionDone
  1229  05CB  3A00               	xorlw	0
  1230  05CC  1903               	skipnz
  1231  05CD  2DC8               	goto	l1153
  1232                           
  1233                           ;main.c: 82: ValoreADC = ADC_GetConversionResult();
  1234  05CE  3184  2437  3185   	fcall	_ADC_GetConversionResult
  1235  05D1  0871               	movf	?_ADC_GetConversionResult+1,w
  1236  05D2  0020               	movlb	0	; select bank0
  1237  05D3  00CC               	movwf	_ValoreADC+1
  1238  05D4  0870               	movf	?_ADC_GetConversionResult,w
  1239  05D5  00CB               	movwf	_ValoreADC
  1240                           
  1241                           ;main.c: 83: Temp = (ValoreADC - 82) / 4;
  1242  05D6  084B               	movf	_ValoreADC,w
  1243  05D7  3EAE               	addlw	174
  1244  05D8  00FC               	movwf	??_main
  1245  05D9  30FF               	movlw	255
  1246  05DA  3D4C               	addwfc	_ValoreADC+1,w
  1247  05DB  00FD               	movwf	??_main+1
  1248  05DC  36FD               	lsrf	??_main+1,f
  1249  05DD  0CFC               	rrf	??_main,f
  1250  05DE  36FD               	lsrf	??_main+1,f
  1251  05DF  0CFC               	rrf	??_main,f
  1252  05E0  087C               	movf	??_main,w
  1253  05E1  00CF               	movwf	_Temp
  1254  05E2  087D               	movf	??_main+1,w
  1255  05E3  00D0               	movwf	_Temp+1
  1256                           
  1257                           ;main.c: 85: if (Temp > 60){
  1258  05E4  3000               	movlw	0
  1259  05E5  0250               	subwf	_Temp+1,w
  1260  05E6  303D               	movlw	61
  1261  05E7  1903               	skipnz
  1262  05E8  024F               	subwf	_Temp,w
  1263  05E9  1C03               	skipc
  1264  05EA  2DF0               	goto	l1163
  1265                           
  1266                           ;main.c: 86: DUTYC = 0xFFFF;
  1267  05EB  30FF               	movlw	255
  1268  05EC  00CD               	movwf	_DUTYC
  1269  05ED  30FF               	movlw	255
  1270  05EE  00CE               	movwf	_DUTYC+1
  1271                           
  1272                           ;main.c: 87: }
  1273  05EF  2DB3               	goto	L2
  1274  05F0                     l1163:	
  1275                           
  1276                           ;main.c: 88: else if (Temp < 30){
  1277  05F0  3000               	movlw	0
  1278  05F1  0250               	subwf	_Temp+1,w
  1279  05F2  301E               	movlw	30
  1280  05F3  1903               	skipnz
  1281  05F4  024F               	subwf	_Temp,w
  1282  05F5  1C03               	btfss	3,0
  1283  05F6  2E44               	goto	l1177
  1284                           
  1285                           ;main.c: 91: else {
  1286                           ;main.c: 92: DUTYC = (5.95 * (Temp - 30)) + 76.5;
  1287                           
  1288                           ;main.c: 90: }
  1289                           
  1290                           ;main.c: 89: DUTYC = 0x0000;
  1291  05F7  084F               	movf	_Temp,w
  1292  05F8  3EE2               	addlw	226
  1293  05F9  00F8               	movwf	___lwtoft@c
  1294  05FA  30FF               	movlw	255
  1295  05FB  3D50               	addwfc	_Temp+1,w
  1296  05FC  00F9               	movwf	___lwtoft@c+1
  1297  05FD  3184  2483  3185   	fcall	___lwtoft
  1298  0600  0878               	movf	?___lwtoft,w
  1299  0601  0020               	movlb	0	; select bank0
  1300  0602  00A3               	movwf	___ftmul@f2
  1301  0603  0879               	movf	?___lwtoft+1,w
  1302  0604  00A4               	movwf	___ftmul@f2+1
  1303  0605  087A               	movf	?___lwtoft+2,w
  1304  0606  00A5               	movwf	___ftmul@f2+2
  1305  0607  3066               	movlw	102
  1306  0608  00A0               	movwf	___ftmul@f1
  1307  0609  30BE               	movlw	190
  1308  060A  00A1               	movwf	___ftmul@f1+1
  1309  060B  3040               	movlw	64
  1310  060C  00A2               	movwf	___ftmul@f1+2
  1311  060D  3186  264C  3185   	fcall	___ftmul
  1312  0610  0020               	movlb	0	; select bank0
  1313  0611  0820               	movf	?___ftmul,w
  1314  0612  00B3               	movwf	___ftadd@f2
  1315  0613  0821               	movf	?___ftmul+1,w
  1316  0614  00B4               	movwf	___ftadd@f2+1
  1317  0615  0822               	movf	?___ftmul+2,w
  1318  0616  00B5               	movwf	___ftadd@f2+2
  1319  0617  3000               	movlw	0
  1320  0618  00B0               	movwf	___ftadd@f1
  1321  0619  3099               	movlw	153
  1322  061A  00B1               	movwf	___ftadd@f1+1
  1323  061B  3042               	movlw	66
  1324  061C  00B2               	movwf	___ftadd@f1+2
  1325  061D  3187  2700  3185   	fcall	___ftadd
  1326  0620  0020               	movlb	0	; select bank0
  1327  0621  0830               	movf	?___ftadd,w
  1328  0622  00BD               	movwf	___fttol@f1
  1329  0623  0831               	movf	?___ftadd+1,w
  1330  0624  00BE               	movwf	___fttol@f1+1
  1331  0625  0832               	movf	?___ftadd+2,w
  1332  0626  00BF               	movwf	___fttol@f1+2
  1333  0627  3185  2524  3185   	fcall	___fttol
  1334  062A  0020               	movlb	0	; select bank0
  1335  062B  083E               	movf	?___fttol+1,w
  1336  062C  00CE               	movwf	_DUTYC+1
  1337  062D  083D               	movf	?___fttol,w
  1338  062E  2E4A               	goto	L1
  1339  062F                     l1171:	
  1340                           ;main.c: 97: while(!ADC_IsConversionDone());
  1341                           
  1342                           ;main.c: 95: else {
  1343                           ;main.c: 96: ADC_StartConversion();
  1344                           
  1345                           ;main.c: 93: }
  1346                           ;main.c: 94: }
  1347                           
  1348  062F  3184  2443  3185   	fcall	_ADC_IsConversionDone
  1349  0632  3A00               	xorlw	0
  1350  0633  1903               	skipnz
  1351  0634  2E2F               	goto	l1171
  1352                           
  1353                           ;main.c: 98: ValoreADC = ADC_GetConversionResult();
  1354  0635  3184  2437  3185   	fcall	_ADC_GetConversionResult
  1355  0638  0871               	movf	?_ADC_GetConversionResult+1,w
  1356  0639  0020               	movlb	0	; select bank0
  1357  063A  00CC               	movwf	_ValoreADC+1
  1358  063B  0870               	movf	?_ADC_GetConversionResult,w
  1359  063C  00CB               	movwf	_ValoreADC
  1360                           
  1361                           ;main.c: 99: if (ValoreADC < 77){
  1362  063D  3000               	movlw	0
  1363  063E  024C               	subwf	_ValoreADC+1,w
  1364  063F  304D               	movlw	77
  1365  0640  1903               	skipnz
  1366  0641  024B               	subwf	_ValoreADC,w
  1367  0642  1803               	skipnc
  1368  0643  2E47               	goto	l1179
  1369  0644                     l1177:	
  1370                           
  1371                           ;main.c: 100: DUTYC = 0x0000;
  1372  0644  01CD               	clrf	_DUTYC
  1373  0645  01CE               	clrf	_DUTYC+1
  1374                           
  1375                           ;main.c: 101: }
  1376  0646  2DB3               	goto	L2
  1377  0647                     l1179:	
  1378                           
  1379                           ;main.c: 102: else {
  1380                           ;main.c: 103: DUTYC = ValoreADC;
  1381  0647  084C               	movf	_ValoreADC+1,w
  1382  0648  00CE               	movwf	_DUTYC+1
  1383  0649  084B               	movf	_ValoreADC,w
  1384  064A                     L1:	
  1385  064A  00CD               	movwf	_DUTYC
  1386  064B  2DB3               	goto	L2
  1387  064C                     __end_of_main:	
  1388                           ;main.c: 104: }
  1389                           ;main.c: 105: }
  1390                           ;main.c: 106: PWM1_LoadDutyValue(DUTYC);
  1391                           
  1392                           
  1393                           	psect	text1
  1394  0483                     __ptext1:	
  1395 ;; *************** function ___lwtoft *****************
  1396 ;; Defined at:
  1397 ;;		line 28 in file "C:\Program Files (x86)\Microchip\xc8\v1.42\sources\common\lwtoft.c"
  1398 ;; Parameters:    Size  Location     Type
  1399 ;;  c               2    8[COMMON] unsigned int 
  1400 ;; Auto vars:     Size  Location     Type
  1401 ;;		None
  1402 ;; Return value:  Size  Location     Type
  1403 ;;                  3    8[COMMON] float 
  1404 ;; Registers used:
  1405 ;;		wreg, status,2, status,0, pclath, cstack
  1406 ;; Tracked objects:
  1407 ;;		On entry : 0/0
  1408 ;;		On exit  : 0/0
  1409 ;;		Unchanged: 0/0
  1410 ;; Data sizes:     COMMON   BANK0   BANK1   BANK2   BANK3   BANK4   BANK5   BANK6   BANK7   BANK8   BANK9  BANK10  BANK1
      +1  BANK12
  1411 ;;      Params:         3       0       0       0       0       0       0       0       0       0       0       0       
      +0       0
  1412 ;;      Locals:         0       0       0       0       0       0       0       0       0       0       0       0       
      +0       0
  1413 ;;      Temps:          1       0       0       0       0       0       0       0       0       0       0       0       
      +0       0
  1414 ;;      Totals:         4       0       0       0       0       0       0       0       0       0       0       0       
      +0       0
  1415 ;;Total ram usage:        4 bytes
  1416 ;; Hardware stack levels used:    1
  1417 ;; Hardware stack levels required when called:    1
  1418 ;; This function calls:
  1419 ;;		___ftpack
  1420 ;; This function is called by:
  1421 ;;		_main
  1422 ;; This function uses a non-reentrant model
  1423 ;;
  1424                           
  1425                           
  1426                           ;psect for function ___lwtoft
  1427  0483                     ___lwtoft:	
  1428                           
  1429                           ;incstack = 0
  1430                           ; Regs used in ___lwtoft: [wreg+status,2+status,0+pclath+cstack]
  1431  0483  0878               	movf	___lwtoft@c,w
  1432  0484  00F0               	movwf	___ftpack@arg
  1433  0485  0879               	movf	___lwtoft@c+1,w
  1434  0486  00F1               	movwf	___ftpack@arg+1
  1435  0487  01F2               	clrf	___ftpack@arg+2
  1436  0488  308E               	movlw	142
  1437  0489  00FB               	movwf	??___lwtoft
  1438  048A  087B               	movf	??___lwtoft,w
  1439  048B  00F3               	movwf	___ftpack@exp
  1440  048C  01F4               	clrf	___ftpack@sign
  1441  048D  3184  24C0         	fcall	___ftpack
  1442  048F  0870               	movf	?___ftpack,w
  1443  0490  00F8               	movwf	?___lwtoft
  1444  0491  0871               	movf	?___ftpack+1,w
  1445  0492  00F9               	movwf	?___lwtoft+1
  1446  0493  0872               	movf	?___ftpack+2,w
  1447  0494  00FA               	movwf	?___lwtoft+2
  1448  0495  0008               	return
  1449  0496                     __end_of___lwtoft:	
  1450                           
  1451                           	psect	text2
  1452  0524                     __ptext2:	
  1453 ;; *************** function ___fttol *****************
  1454 ;; Defined at:
  1455 ;;		line 44 in file "C:\Program Files (x86)\Microchip\xc8\v1.42\sources\common\fttol.c"
  1456 ;; Parameters:    Size  Location     Type
  1457 ;;  f1              3   29[BANK0 ] float 
  1458 ;; Auto vars:     Size  Location     Type
  1459 ;;  lval            4   38[BANK0 ] unsigned long 
  1460 ;;  exp1            1   42[BANK0 ] unsigned char 
  1461 ;;  sign1           1   37[BANK0 ] unsigned char 
  1462 ;; Return value:  Size  Location     Type
  1463 ;;                  4   29[BANK0 ] long 
  1464 ;; Registers used:
  1465 ;;		wreg, status,2, status,0
  1466 ;; Tracked objects:
  1467 ;;		On entry : 0/0
  1468 ;;		On exit  : 0/0
  1469 ;;		Unchanged: 0/0
  1470 ;; Data sizes:     COMMON   BANK0   BANK1   BANK2   BANK3   BANK4   BANK5   BANK6   BANK7   BANK8   BANK9  BANK10  BANK1
      +1  BANK12
  1471 ;;      Params:         0       4       0       0       0       0       0       0       0       0       0       0       
      +0       0
  1472 ;;      Locals:         0       6       0       0       0       0       0       0       0       0       0       0       
      +0       0
  1473 ;;      Temps:          0       4       0       0       0       0       0       0       0       0       0       0       
      +0       0
  1474 ;;      Totals:         0      14       0       0       0       0       0       0       0       0       0       0       
      +0       0
  1475 ;;Total ram usage:       14 bytes
  1476 ;; Hardware stack levels used:    1
  1477 ;; This function calls:
  1478 ;;		Nothing
  1479 ;; This function is called by:
  1480 ;;		_main
  1481 ;; This function uses a non-reentrant model
  1482 ;;
  1483                           
  1484                           
  1485                           ;psect for function ___fttol
  1486  0524                     ___fttol:	
  1487                           
  1488                           ;incstack = 0
  1489                           ; Regs used in ___fttol: [wreg+status,2+status,0]
  1490  0524  0020               	movlb	0	; select bank0
  1491  0525  083D               	movf	___fttol@f1,w
  1492  0526  00C1               	movwf	??___fttol
  1493  0527  083E               	movf	___fttol@f1+1,w
  1494  0528  00C2               	movwf	??___fttol+1
  1495  0529  083F               	movf	___fttol@f1+2,w
  1496  052A  00C3               	movwf	??___fttol+2
  1497  052B  1003               	clrc
  1498  052C  0D42               	rlf	??___fttol+1,w
  1499  052D  0D43               	rlf	??___fttol+2,w
  1500  052E  00C4               	movwf	??___fttol+3
  1501  052F  0844               	movf	??___fttol+3,w
  1502  0530  00CA               	movwf	___fttol@exp1
  1503  0531  084A               	movf	___fttol@exp1,w
  1504  0532  1D03               	btfss	3,2
  1505  0533  2D3D               	goto	l1109
  1506  0534  3000               	movlw	0
  1507  0535  00C0               	movwf	?___fttol+3
  1508  0536  3000               	movlw	0
  1509  0537  00BF               	movwf	?___fttol+2
  1510  0538  3000               	movlw	0
  1511  0539  00BE               	movwf	?___fttol+1
  1512  053A  3000               	movlw	0
  1513  053B  00BD               	movwf	?___fttol
  1514  053C  0008               	return
  1515  053D                     l1109:	
  1516  053D  083D               	movf	___fttol@f1,w
  1517  053E  00C1               	movwf	??___fttol
  1518  053F  083E               	movf	___fttol@f1+1,w
  1519  0540  00C2               	movwf	??___fttol+1
  1520  0541  083F               	movf	___fttol@f1+2,w
  1521  0542  00C3               	movwf	??___fttol+2
  1522  0543  3017               	movlw	23
  1523  0544                     u1155:	
  1524  0544  36C3               	lsrf	??___fttol+2,f
  1525  0545  0CC2               	rrf	??___fttol+1,f
  1526  0546  0CC1               	rrf	??___fttol,f
  1527  0547  0B89               	decfsz	9,f
  1528  0548  2D44               	goto	u1155
  1529  0549  0841               	movf	??___fttol,w
  1530  054A  00C4               	movwf	??___fttol+3
  1531  054B  0844               	movf	??___fttol+3,w
  1532  054C  00C5               	movwf	___fttol@sign1
  1533  054D  17BE               	bsf	___fttol@f1+1,7
  1534  054E  30FF               	movlw	255
  1535  054F  05BD               	andwf	___fttol@f1,f
  1536  0550  30FF               	movlw	255
  1537  0551  05BE               	andwf	___fttol@f1+1,f
  1538  0552  3000               	movlw	0
  1539  0553  05BF               	andwf	___fttol@f1+2,f
  1540  0554  083D               	movf	___fttol@f1,w
  1541  0555  00C6               	movwf	___fttol@lval
  1542  0556  083E               	movf	___fttol@f1+1,w
  1543  0557  00C7               	movwf	___fttol@lval+1
  1544  0558  083F               	movf	___fttol@f1+2,w
  1545  0559  00C8               	movwf	___fttol@lval+2
  1546  055A  01C9               	clrf	___fttol@lval+3
  1547  055B  308E               	movlw	142
  1548  055C  02CA               	subwf	___fttol@exp1,f
  1549  055D  1FCA               	btfss	___fttol@exp1,7
  1550  055E  2D7B               	goto	l1129
  1551  055F  084A               	movf	___fttol@exp1,w
  1552  0560  3A80               	xorlw	128
  1553  0561  3E8F               	addlw	143
  1554  0562  1803               	skipnc
  1555  0563  2D6D               	goto	l1127
  1556  0564  3000               	movlw	0
  1557  0565  00C0               	movwf	?___fttol+3
  1558  0566  3000               	movlw	0
  1559  0567  00BF               	movwf	?___fttol+2
  1560  0568  3000               	movlw	0
  1561  0569  00BE               	movwf	?___fttol+1
  1562  056A  3000               	movlw	0
  1563  056B  00BD               	movwf	?___fttol
  1564  056C  0008               	return
  1565  056D                     l1127:	
  1566  056D  3001               	movlw	1
  1567  056E                     u1185:	
  1568  056E  36C9               	lsrf	___fttol@lval+3,f
  1569  056F  0CC8               	rrf	___fttol@lval+2,f
  1570  0570  0CC7               	rrf	___fttol@lval+1,f
  1571  0571  0CC6               	rrf	___fttol@lval,f
  1572  0572  0B89               	decfsz	9,f
  1573  0573  2D6E               	goto	u1185
  1574  0574  3001               	movlw	1
  1575  0575  00C1               	movwf	??___fttol
  1576  0576  0841               	movf	??___fttol,w
  1577  0577  07CA               	addwf	___fttol@exp1,f
  1578  0578  1903               	btfsc	3,2
  1579  0579  2D94               	goto	l1137
  1580  057A  2D6D               	goto	l1127
  1581  057B                     l1129:	
  1582  057B  3018               	movlw	24
  1583  057C  024A               	subwf	___fttol@exp1,w
  1584  057D  1C03               	skipc
  1585  057E  2D91               	goto	l435
  1586  057F  3000               	movlw	0
  1587  0580  00C0               	movwf	?___fttol+3
  1588  0581  3000               	movlw	0
  1589  0582  00BF               	movwf	?___fttol+2
  1590  0583  3000               	movlw	0
  1591  0584  00BE               	movwf	?___fttol+1
  1592  0585  3000               	movlw	0
  1593  0586  00BD               	movwf	?___fttol
  1594  0587  0008               	return
  1595  0588                     l1135:	
  1596  0588  3001               	movlw	1
  1597  0589                     u1215:	
  1598  0589  35C6               	lslf	___fttol@lval,f
  1599  058A  0DC7               	rlf	___fttol@lval+1,f
  1600  058B  0DC8               	rlf	___fttol@lval+2,f
  1601  058C  0DC9               	rlf	___fttol@lval+3,f
  1602  058D  0B89               	decfsz	9,f
  1603  058E  2D89               	goto	u1215
  1604  058F  3001               	movlw	1
  1605  0590  02CA               	subwf	___fttol@exp1,f
  1606  0591                     l435:	
  1607  0591  084A               	movf	___fttol@exp1,w
  1608  0592  1D03               	btfss	3,2
  1609  0593  2D88               	goto	l1135
  1610  0594                     l1137:	
  1611  0594  0845               	movf	___fttol@sign1,w
  1612  0595  1903               	btfsc	3,2
  1613  0596  2DA2               	goto	l1141
  1614  0597  09C6               	comf	___fttol@lval,f
  1615  0598  09C7               	comf	___fttol@lval+1,f
  1616  0599  09C8               	comf	___fttol@lval+2,f
  1617  059A  09C9               	comf	___fttol@lval+3,f
  1618  059B  0AC6               	incf	___fttol@lval,f
  1619  059C  1903               	skipnz
  1620  059D  0AC7               	incf	___fttol@lval+1,f
  1621  059E  1903               	skipnz
  1622  059F  0AC8               	incf	___fttol@lval+2,f
  1623  05A0  1903               	skipnz
  1624  05A1  0AC9               	incf	___fttol@lval+3,f
  1625  05A2                     l1141:	
  1626  05A2  0849               	movf	___fttol@lval+3,w
  1627  05A3  00C0               	movwf	?___fttol+3
  1628  05A4  0848               	movf	___fttol@lval+2,w
  1629  05A5  00BF               	movwf	?___fttol+2
  1630  05A6  0847               	movf	___fttol@lval+1,w
  1631  05A7  00BE               	movwf	?___fttol+1
  1632  05A8  0846               	movf	___fttol@lval,w
  1633  05A9  00BD               	movwf	?___fttol
  1634  05AA  0008               	return
  1635  05AB                     __end_of___fttol:	
  1636                           
  1637                           	psect	text3
  1638  064C                     __ptext3:	
  1639 ;; *************** function ___ftmul *****************
  1640 ;; Defined at:
  1641 ;;		line 62 in file "C:\Program Files (x86)\Microchip\xc8\v1.42\sources\common\ftmul.c"
  1642 ;; Parameters:    Size  Location     Type
  1643 ;;  f1              3    0[BANK0 ] float 
  1644 ;;  f2              3    3[BANK0 ] float 
  1645 ;; Auto vars:     Size  Location     Type
  1646 ;;  f3_as_produc    3   11[BANK0 ] unsigned um
  1647 ;;  sign            1   15[BANK0 ] unsigned char 
  1648 ;;  cntr            1   14[BANK0 ] unsigned char 
  1649 ;;  exp             1   10[BANK0 ] unsigned char 
  1650 ;; Return value:  Size  Location     Type
  1651 ;;                  3    0[BANK0 ] float 
  1652 ;; Registers used:
  1653 ;;		wreg, status,2, status,0, pclath, cstack
  1654 ;; Tracked objects:
  1655 ;;		On entry : 0/0
  1656 ;;		On exit  : 0/0
  1657 ;;		Unchanged: 0/0
  1658 ;; Data sizes:     COMMON   BANK0   BANK1   BANK2   BANK3   BANK4   BANK5   BANK6   BANK7   BANK8   BANK9  BANK10  BANK1
      +1  BANK12
  1659 ;;      Params:         0       6       0       0       0       0       0       0       0       0       0       0       
      +0       0
  1660 ;;      Locals:         0       6       0       0       0       0       0       0       0       0       0       0       
      +0       0
  1661 ;;      Temps:          0       4       0       0       0       0       0       0       0       0       0       0       
      +0       0
  1662 ;;      Totals:         0      16       0       0       0       0       0       0       0       0       0       0       
      +0       0
  1663 ;;Total ram usage:       16 bytes
  1664 ;; Hardware stack levels used:    1
  1665 ;; Hardware stack levels required when called:    1
  1666 ;; This function calls:
  1667 ;;		___ftpack
  1668 ;; This function is called by:
  1669 ;;		_main
  1670 ;; This function uses a non-reentrant model
  1671 ;;
  1672                           
  1673                           
  1674                           ;psect for function ___ftmul
  1675  064C                     ___ftmul:	
  1676                           
  1677                           ;incstack = 0
  1678                           ; Regs used in ___ftmul: [wreg+status,2+status,0+pclath+cstack]
  1679  064C  0020               	movlb	0	; select bank0
  1680  064D  0820               	movf	___ftmul@f1,w
  1681  064E  00A6               	movwf	??___ftmul
  1682  064F  0821               	movf	___ftmul@f1+1,w
  1683  0650  00A7               	movwf	??___ftmul+1
  1684  0651  0822               	movf	___ftmul@f1+2,w
  1685  0652  00A8               	movwf	??___ftmul+2
  1686  0653  1003               	clrc
  1687  0654  0D27               	rlf	??___ftmul+1,w
  1688  0655  0D28               	rlf	??___ftmul+2,w
  1689  0656  00A9               	movwf	??___ftmul+3
  1690  0657  0829               	movf	??___ftmul+3,w
  1691  0658  00AA               	movwf	___ftmul@exp
  1692  0659  082A               	movf	___ftmul@exp,w
  1693  065A  1D03               	btfss	3,2
  1694  065B  2E63               	goto	l1059
  1695  065C  3000               	movlw	0
  1696  065D  00A0               	movwf	?___ftmul
  1697  065E  3000               	movlw	0
  1698  065F  00A1               	movwf	?___ftmul+1
  1699  0660  3000               	movlw	0
  1700  0661  00A2               	movwf	?___ftmul+2
  1701  0662  0008               	return
  1702  0663                     l1059:	
  1703  0663  0823               	movf	___ftmul@f2,w
  1704  0664  00A6               	movwf	??___ftmul
  1705  0665  0824               	movf	___ftmul@f2+1,w
  1706  0666  00A7               	movwf	??___ftmul+1
  1707  0667  0825               	movf	___ftmul@f2+2,w
  1708  0668  00A8               	movwf	??___ftmul+2
  1709  0669  1003               	clrc
  1710  066A  0D27               	rlf	??___ftmul+1,w
  1711  066B  0D28               	rlf	??___ftmul+2,w
  1712  066C  00A9               	movwf	??___ftmul+3
  1713  066D  0829               	movf	??___ftmul+3,w
  1714  066E  00AF               	movwf	___ftmul@sign
  1715  066F  082F               	movf	___ftmul@sign,w
  1716  0670  1D03               	btfss	3,2
  1717  0671  2E79               	goto	l1065
  1718  0672  3000               	movlw	0
  1719  0673  00A0               	movwf	?___ftmul
  1720  0674  3000               	movlw	0
  1721  0675  00A1               	movwf	?___ftmul+1
  1722  0676  3000               	movlw	0
  1723  0677  00A2               	movwf	?___ftmul+2
  1724  0678  0008               	return
  1725  0679                     l1065:	
  1726  0679  082F               	movf	___ftmul@sign,w
  1727  067A  3E7B               	addlw	123
  1728  067B  00A6               	movwf	??___ftmul
  1729  067C  0826               	movf	??___ftmul,w
  1730  067D  07AA               	addwf	___ftmul@exp,f
  1731  067E  0820               	movf	___ftmul@f1,w
  1732  067F  00A6               	movwf	??___ftmul
  1733  0680  0821               	movf	___ftmul@f1+1,w
  1734  0681  00A7               	movwf	??___ftmul+1
  1735  0682  0822               	movf	___ftmul@f1+2,w
  1736  0683  00A8               	movwf	??___ftmul+2
  1737  0684  3010               	movlw	16
  1738  0685                     u1045:	
  1739  0685  36A8               	lsrf	??___ftmul+2,f
  1740  0686  0CA7               	rrf	??___ftmul+1,f
  1741  0687  0CA6               	rrf	??___ftmul,f
  1742  0688  0B89               	decfsz	9,f
  1743  0689  2E85               	goto	u1045
  1744  068A  0826               	movf	??___ftmul,w
  1745  068B  00A9               	movwf	??___ftmul+3
  1746  068C  0829               	movf	??___ftmul+3,w
  1747  068D  00AF               	movwf	___ftmul@sign
  1748  068E  0823               	movf	___ftmul@f2,w
  1749  068F  00A6               	movwf	??___ftmul
  1750  0690  0824               	movf	___ftmul@f2+1,w
  1751  0691  00A7               	movwf	??___ftmul+1
  1752  0692  0825               	movf	___ftmul@f2+2,w
  1753  0693  00A8               	movwf	??___ftmul+2
  1754  0694  3010               	movlw	16
  1755  0695                     u1055:	
  1756  0695  36A8               	lsrf	??___ftmul+2,f
  1757  0696  0CA7               	rrf	??___ftmul+1,f
  1758  0697  0CA6               	rrf	??___ftmul,f
  1759  0698  0B89               	decfsz	9,f
  1760  0699  2E95               	goto	u1055
  1761  069A  0826               	movf	??___ftmul,w
  1762  069B  00A9               	movwf	??___ftmul+3
  1763  069C  0829               	movf	??___ftmul+3,w
  1764  069D  06AF               	xorwf	___ftmul@sign,f
  1765  069E  3080               	movlw	128
  1766  069F  00A6               	movwf	??___ftmul
  1767  06A0  0826               	movf	??___ftmul,w
  1768  06A1  05AF               	andwf	___ftmul@sign,f
  1769  06A2  17A1               	bsf	___ftmul@f1+1,7
  1770  06A3  17A4               	bsf	___ftmul@f2+1,7
  1771  06A4  30FF               	movlw	255
  1772  06A5  05A3               	andwf	___ftmul@f2,f
  1773  06A6  30FF               	movlw	255
  1774  06A7  05A4               	andwf	___ftmul@f2+1,f
  1775  06A8  3000               	movlw	0
  1776  06A9  05A5               	andwf	___ftmul@f2+2,f
  1777  06AA  3000               	movlw	0
  1778  06AB  00AB               	movwf	___ftmul@f3_as_product
  1779  06AC  3000               	movlw	0
  1780  06AD  00AC               	movwf	___ftmul@f3_as_product+1
  1781  06AE  3000               	movlw	0
  1782  06AF  00AD               	movwf	___ftmul@f3_as_product+2
  1783  06B0  3007               	movlw	7
  1784  06B1  00A6               	movwf	??___ftmul
  1785  06B2  0826               	movf	??___ftmul,w
  1786  06B3  00AE               	movwf	___ftmul@cntr
  1787  06B4                     l1077:	
  1788  06B4  1C20               	btfss	___ftmul@f1,0
  1789  06B5  2EBC               	goto	l1081
  1790  06B6  0823               	movf	___ftmul@f2,w
  1791  06B7  07AB               	addwf	___ftmul@f3_as_product,f
  1792  06B8  0824               	movf	___ftmul@f2+1,w
  1793  06B9  3DAC               	addwfc	___ftmul@f3_as_product+1,f
  1794  06BA  0825               	movf	___ftmul@f2+2,w
  1795  06BB  3DAD               	addwfc	___ftmul@f3_as_product+2,f
  1796  06BC                     l1081:	
  1797  06BC  3001               	movlw	1
  1798  06BD                     u1075:	
  1799  06BD  36A2               	lsrf	___ftmul@f1+2,f
  1800  06BE  0CA1               	rrf	___ftmul@f1+1,f
  1801  06BF  0CA0               	rrf	___ftmul@f1,f
  1802  06C0  0B89               	decfsz	9,f
  1803  06C1  2EBD               	goto	u1075
  1804  06C2  3001               	movlw	1
  1805  06C3                     u1085:	
  1806  06C3  35A3               	lslf	___ftmul@f2,f
  1807  06C4  0DA4               	rlf	___ftmul@f2+1,f
  1808  06C5  0DA5               	rlf	___ftmul@f2+2,f
  1809  06C6  0B89               	decfsz	9,f
  1810  06C7  2EC3               	goto	u1085
  1811  06C8  3001               	movlw	1
  1812  06C9  02AE               	subwf	___ftmul@cntr,f
  1813  06CA  1D03               	btfss	3,2
  1814  06CB  2EB4               	goto	l1077
  1815  06CC  3009               	movlw	9
  1816  06CD  00A6               	movwf	??___ftmul
  1817  06CE  0826               	movf	??___ftmul,w
  1818  06CF  00AE               	movwf	___ftmul@cntr
  1819  06D0                     l1089:	
  1820  06D0  1C20               	btfss	___ftmul@f1,0
  1821  06D1  2ED8               	goto	l1093
  1822  06D2  0823               	movf	___ftmul@f2,w
  1823  06D3  07AB               	addwf	___ftmul@f3_as_product,f
  1824  06D4  0824               	movf	___ftmul@f2+1,w
  1825  06D5  3DAC               	addwfc	___ftmul@f3_as_product+1,f
  1826  06D6  0825               	movf	___ftmul@f2+2,w
  1827  06D7  3DAD               	addwfc	___ftmul@f3_as_product+2,f
  1828  06D8                     l1093:	
  1829  06D8  3001               	movlw	1
  1830  06D9                     u1115:	
  1831  06D9  36A2               	lsrf	___ftmul@f1+2,f
  1832  06DA  0CA1               	rrf	___ftmul@f1+1,f
  1833  06DB  0CA0               	rrf	___ftmul@f1,f
  1834  06DC  0B89               	decfsz	9,f
  1835  06DD  2ED9               	goto	u1115
  1836  06DE  3001               	movlw	1
  1837  06DF                     u1125:	
  1838  06DF  36AD               	lsrf	___ftmul@f3_as_product+2,f
  1839  06E0  0CAC               	rrf	___ftmul@f3_as_product+1,f
  1840  06E1  0CAB               	rrf	___ftmul@f3_as_product,f
  1841  06E2  0B89               	decfsz	9,f
  1842  06E3  2EDF               	goto	u1125
  1843  06E4  3001               	movlw	1
  1844  06E5  02AE               	subwf	___ftmul@cntr,f
  1845  06E6  1D03               	btfss	3,2
  1846  06E7  2ED0               	goto	l1089
  1847  06E8  082B               	movf	___ftmul@f3_as_product,w
  1848  06E9  00F0               	movwf	___ftpack@arg
  1849  06EA  082C               	movf	___ftmul@f3_as_product+1,w
  1850  06EB  00F1               	movwf	___ftpack@arg+1
  1851  06EC  082D               	movf	___ftmul@f3_as_product+2,w
  1852  06ED  00F2               	movwf	___ftpack@arg+2
  1853  06EE  082A               	movf	___ftmul@exp,w
  1854  06EF  00A6               	movwf	??___ftmul
  1855  06F0  0826               	movf	??___ftmul,w
  1856  06F1  00F3               	movwf	___ftpack@exp
  1857  06F2  082F               	movf	___ftmul@sign,w
  1858  06F3  00A7               	movwf	??___ftmul+1
  1859  06F4  0827               	movf	??___ftmul+1,w
  1860  06F5  00F4               	movwf	___ftpack@sign
  1861  06F6  3184  24C0         	fcall	___ftpack
  1862  06F8  0870               	movf	?___ftpack,w
  1863  06F9  0020               	movlb	0	; select bank0
  1864  06FA  00A0               	movwf	?___ftmul
  1865  06FB  0871               	movf	?___ftpack+1,w
  1866  06FC  00A1               	movwf	?___ftmul+1
  1867  06FD  0872               	movf	?___ftpack+2,w
  1868  06FE  00A2               	movwf	?___ftmul+2
  1869  06FF  0008               	return
  1870  0700                     __end_of___ftmul:	
  1871                           
  1872                           	psect	text4
  1873  0700                     __ptext4:	
  1874 ;; *************** function ___ftadd *****************
  1875 ;; Defined at:
  1876 ;;		line 86 in file "C:\Program Files (x86)\Microchip\xc8\v1.42\sources\common\ftadd.c"
  1877 ;; Parameters:    Size  Location     Type
  1878 ;;  f1              3   16[BANK0 ] float 
  1879 ;;  f2              3   19[BANK0 ] float 
  1880 ;; Auto vars:     Size  Location     Type
  1881 ;;  exp1            1   28[BANK0 ] unsigned char 
  1882 ;;  exp2            1   27[BANK0 ] unsigned char 
  1883 ;;  sign            1   26[BANK0 ] unsigned char 
  1884 ;; Return value:  Size  Location     Type
  1885 ;;                  3   16[BANK0 ] float 
  1886 ;; Registers used:
  1887 ;;		wreg, status,2, status,0, pclath, cstack
  1888 ;; Tracked objects:
  1889 ;;		On entry : 0/0
  1890 ;;		On exit  : 0/0
  1891 ;;		Unchanged: 0/0
  1892 ;; Data sizes:     COMMON   BANK0   BANK1   BANK2   BANK3   BANK4   BANK5   BANK6   BANK7   BANK8   BANK9  BANK10  BANK1
      +1  BANK12
  1893 ;;      Params:         0       6       0       0       0       0       0       0       0       0       0       0       
      +0       0
  1894 ;;      Locals:         0       3       0       0       0       0       0       0       0       0       0       0       
      +0       0
  1895 ;;      Temps:          0       4       0       0       0       0       0       0       0       0       0       0       
      +0       0
  1896 ;;      Totals:         0      13       0       0       0       0       0       0       0       0       0       0       
      +0       0
  1897 ;;Total ram usage:       13 bytes
  1898 ;; Hardware stack levels used:    1
  1899 ;; Hardware stack levels required when called:    1
  1900 ;; This function calls:
  1901 ;;		___ftpack
  1902 ;; This function is called by:
  1903 ;;		_main
  1904 ;; This function uses a non-reentrant model
  1905 ;;
  1906                           
  1907                           
  1908                           ;psect for function ___ftadd
  1909  0700                     ___ftadd:	
  1910                           
  1911                           ;incstack = 0
  1912                           ; Regs used in ___ftadd: [wreg+status,2+status,0+pclath+cstack]
  1913  0700  0020               	movlb	0	; select bank0
  1914  0701  0830               	movf	___ftadd@f1,w
  1915  0702  00B6               	movwf	??___ftadd
  1916  0703  0831               	movf	___ftadd@f1+1,w
  1917  0704  00B7               	movwf	??___ftadd+1
  1918  0705  0832               	movf	___ftadd@f1+2,w
  1919  0706  00B8               	movwf	??___ftadd+2
  1920  0707  1003               	clrc
  1921  0708  0D37               	rlf	??___ftadd+1,w
  1922  0709  0D38               	rlf	??___ftadd+2,w
  1923  070A  00B9               	movwf	??___ftadd+3
  1924  070B  0839               	movf	??___ftadd+3,w
  1925  070C  00BC               	movwf	___ftadd@exp1
  1926  070D  0833               	movf	___ftadd@f2,w
  1927  070E  00B6               	movwf	??___ftadd
  1928  070F  0834               	movf	___ftadd@f2+1,w
  1929  0710  00B7               	movwf	??___ftadd+1
  1930  0711  0835               	movf	___ftadd@f2+2,w
  1931  0712  00B8               	movwf	??___ftadd+2
  1932  0713  1003               	clrc
  1933  0714  0D37               	rlf	??___ftadd+1,w
  1934  0715  0D38               	rlf	??___ftadd+2,w
  1935  0716  00B9               	movwf	??___ftadd+3
  1936  0717  0839               	movf	??___ftadd+3,w
  1937  0718  00BB               	movwf	___ftadd@exp2
  1938  0719  083C               	movf	___ftadd@exp1,w
  1939  071A  1903               	btfsc	3,2
  1940  071B  2F28               	goto	l989
  1941  071C  083B               	movf	___ftadd@exp2,w
  1942  071D  023C               	subwf	___ftadd@exp1,w
  1943  071E  1803               	skipnc
  1944  071F  2F2F               	goto	l993
  1945  0720  033C               	decf	___ftadd@exp1,w
  1946  0721  3AFF               	xorlw	255
  1947  0722  073B               	addwf	___ftadd@exp2,w
  1948  0723  00B6               	movwf	??___ftadd
  1949  0724  3019               	movlw	25
  1950  0725  0236               	subwf	??___ftadd,w
  1951  0726  1C03               	skipc
  1952  0727  2F2F               	goto	l993
  1953  0728                     l989:	
  1954  0728  0833               	movf	___ftadd@f2,w
  1955  0729  00B0               	movwf	?___ftadd
  1956  072A  0834               	movf	___ftadd@f2+1,w
  1957  072B  00B1               	movwf	?___ftadd+1
  1958  072C  0835               	movf	___ftadd@f2+2,w
  1959  072D  00B2               	movwf	?___ftadd+2
  1960  072E  0008               	return
  1961  072F                     l993:	
  1962  072F  083B               	movf	___ftadd@exp2,w
  1963  0730  1903               	btfsc	3,2
  1964  0731  0008               	return
  1965  0732  083C               	movf	___ftadd@exp1,w
  1966  0733  023B               	subwf	___ftadd@exp2,w
  1967  0734  1803               	skipnc
  1968  0735  2F3E               	goto	l999
  1969  0736  033B               	decf	___ftadd@exp2,w
  1970  0737  3AFF               	xorlw	255
  1971  0738  073C               	addwf	___ftadd@exp1,w
  1972  0739  00B6               	movwf	??___ftadd
  1973  073A  3019               	movlw	25
  1974  073B  0236               	subwf	??___ftadd,w
  1975  073C  1803               	btfsc	3,0
  1976  073D  0008               	return
  1977  073E                     l999:	
  1978  073E  3006               	movlw	6
  1979  073F  00B6               	movwf	??___ftadd
  1980  0740  0836               	movf	??___ftadd,w
  1981  0741  00BA               	movwf	___ftadd@sign
  1982  0742  1BB2               	btfsc	___ftadd@f1+2,7
  1983  0743  17BA               	bsf	___ftadd@sign,7
  1984  0744  1BB5               	btfsc	___ftadd@f2+2,7
  1985  0745  173A               	bsf	___ftadd@sign,6
  1986  0746  17B1               	bsf	___ftadd@f1+1,7
  1987  0747  30FF               	movlw	255
  1988  0748  05B0               	andwf	___ftadd@f1,f
  1989  0749  30FF               	movlw	255
  1990  074A  05B1               	andwf	___ftadd@f1+1,f
  1991  074B  3000               	movlw	0
  1992  074C  05B2               	andwf	___ftadd@f1+2,f
  1993  074D  17B4               	bsf	___ftadd@f2+1,7
  1994  074E  30FF               	movlw	255
  1995  074F  05B3               	andwf	___ftadd@f2,f
  1996  0750  30FF               	movlw	255
  1997  0751  05B4               	andwf	___ftadd@f2+1,f
  1998  0752  3000               	movlw	0
  1999  0753  05B5               	andwf	___ftadd@f2+2,f
  2000  0754  083B               	movf	___ftadd@exp2,w
  2001  0755  023C               	subwf	___ftadd@exp1,w
  2002  0756  1803               	skipnc
  2003  0757  2F7A               	goto	l1021
  2004  0758                     l1011:	
  2005  0758  3001               	movlw	1
  2006  0759                     u885:	
  2007  0759  35B3               	lslf	___ftadd@f2,f
  2008  075A  0DB4               	rlf	___ftadd@f2+1,f
  2009  075B  0DB5               	rlf	___ftadd@f2+2,f
  2010  075C  0B89               	decfsz	9,f
  2011  075D  2F59               	goto	u885
  2012  075E  3001               	movlw	1
  2013  075F  02BB               	subwf	___ftadd@exp2,f
  2014  0760  083B               	movf	___ftadd@exp2,w
  2015  0761  063C               	xorwf	___ftadd@exp1,w
  2016  0762  1903               	skipnz
  2017  0763  2F75               	goto	l1019
  2018  0764  3001               	movlw	1
  2019  0765  02BA               	subwf	___ftadd@sign,f
  2020  0766  083A               	movf	___ftadd@sign,w
  2021  0767  3907               	andlw	7
  2022  0768  1903               	btfsc	3,2
  2023  0769  2F75               	goto	l1019
  2024  076A  2F58               	goto	l1011
  2025  076B                     l1017:	
  2026  076B  3001               	movlw	1
  2027  076C                     u915:	
  2028  076C  36B2               	lsrf	___ftadd@f1+2,f
  2029  076D  0CB1               	rrf	___ftadd@f1+1,f
  2030  076E  0CB0               	rrf	___ftadd@f1,f
  2031  076F  0B89               	decfsz	9,f
  2032  0770  2F6C               	goto	u915
  2033  0771  3001               	movlw	1
  2034  0772  00B6               	movwf	??___ftadd
  2035  0773  0836               	movf	??___ftadd,w
  2036  0774  07BC               	addwf	___ftadd@exp1,f
  2037  0775                     l1019:	
  2038  0775  083C               	movf	___ftadd@exp1,w
  2039  0776  063B               	xorwf	___ftadd@exp2,w
  2040  0777  1903               	btfsc	3,2
  2041  0778  2F9F               	goto	l375
  2042  0779  2F6B               	goto	l1017
  2043  077A                     l1021:	
  2044  077A  083C               	movf	___ftadd@exp1,w
  2045  077B  023B               	subwf	___ftadd@exp2,w
  2046  077C  1803               	skipnc
  2047  077D  2F9F               	goto	l375
  2048  077E                     l1023:	
  2049  077E  3001               	movlw	1
  2050  077F                     u945:	
  2051  077F  35B0               	lslf	___ftadd@f1,f
  2052  0780  0DB1               	rlf	___ftadd@f1+1,f
  2053  0781  0DB2               	rlf	___ftadd@f1+2,f
  2054  0782  0B89               	decfsz	9,f
  2055  0783  2F7F               	goto	u945
  2056  0784  3001               	movlw	1
  2057  0785  02BC               	subwf	___ftadd@exp1,f
  2058  0786  083B               	movf	___ftadd@exp2,w
  2059  0787  063C               	xorwf	___ftadd@exp1,w
  2060  0788  1903               	skipnz
  2061  0789  2F9B               	goto	l1031
  2062  078A  3001               	movlw	1
  2063  078B  02BA               	subwf	___ftadd@sign,f
  2064  078C  083A               	movf	___ftadd@sign,w
  2065  078D  3907               	andlw	7
  2066  078E  1903               	btfsc	3,2
  2067  078F  2F9B               	goto	l1031
  2068  0790  2F7E               	goto	l1023
  2069  0791                     l1029:	
  2070  0791  3001               	movlw	1
  2071  0792                     u975:	
  2072  0792  36B5               	lsrf	___ftadd@f2+2,f
  2073  0793  0CB4               	rrf	___ftadd@f2+1,f
  2074  0794  0CB3               	rrf	___ftadd@f2,f
  2075  0795  0B89               	decfsz	9,f
  2076  0796  2F92               	goto	u975
  2077  0797  3001               	movlw	1
  2078  0798  00B6               	movwf	??___ftadd
  2079  0799  0836               	movf	??___ftadd,w
  2080  079A  07BB               	addwf	___ftadd@exp2,f
  2081  079B                     l1031:	
  2082  079B  083C               	movf	___ftadd@exp1,w
  2083  079C  063B               	xorwf	___ftadd@exp2,w
  2084  079D  1D03               	skipz
  2085  079E  2F91               	goto	l1029
  2086  079F                     l375:	
  2087  079F  1FBA               	btfss	___ftadd@sign,7
  2088  07A0  2FB1               	goto	l1035
  2089  07A1  30FF               	movlw	255
  2090  07A2  06B0               	xorwf	___ftadd@f1,f
  2091  07A3  30FF               	movlw	255
  2092  07A4  06B1               	xorwf	___ftadd@f1+1,f
  2093  07A5  30FF               	movlw	255
  2094  07A6  06B2               	xorwf	___ftadd@f1+2,f
  2095  07A7  3001               	movlw	1
  2096  07A8  07B0               	addwf	___ftadd@f1,f
  2097  07A9  3000               	movlw	0
  2098  07AA  1803               	skipnc
  2099  07AB  3001               	movlw	1
  2100  07AC  07B1               	addwf	___ftadd@f1+1,f
  2101  07AD  3000               	movlw	0
  2102  07AE  1803               	skipnc
  2103  07AF  3001               	movlw	1
  2104  07B0  07B2               	addwf	___ftadd@f1+2,f
  2105  07B1                     l1035:	
  2106  07B1  1F3A               	btfss	___ftadd@sign,6
  2107  07B2  2FC3               	goto	l1039
  2108  07B3  30FF               	movlw	255
  2109  07B4  06B3               	xorwf	___ftadd@f2,f
  2110  07B5  30FF               	movlw	255
  2111  07B6  06B4               	xorwf	___ftadd@f2+1,f
  2112  07B7  30FF               	movlw	255
  2113  07B8  06B5               	xorwf	___ftadd@f2+2,f
  2114  07B9  3001               	movlw	1
  2115  07BA  07B3               	addwf	___ftadd@f2,f
  2116  07BB  3000               	movlw	0
  2117  07BC  1803               	skipnc
  2118  07BD  3001               	movlw	1
  2119  07BE  07B4               	addwf	___ftadd@f2+1,f
  2120  07BF  3000               	movlw	0
  2121  07C0  1803               	skipnc
  2122  07C1  3001               	movlw	1
  2123  07C2  07B5               	addwf	___ftadd@f2+2,f
  2124  07C3                     l1039:	
  2125  07C3  01BA               	clrf	___ftadd@sign
  2126  07C4  0830               	movf	___ftadd@f1,w
  2127  07C5  07B3               	addwf	___ftadd@f2,f
  2128  07C6  0831               	movf	___ftadd@f1+1,w
  2129  07C7  3DB4               	addwfc	___ftadd@f2+1,f
  2130  07C8  0832               	movf	___ftadd@f1+2,w
  2131  07C9  3DB5               	addwfc	___ftadd@f2+2,f
  2132  07CA  1FB5               	btfss	___ftadd@f2+2,7
  2133  07CB  2FDE               	goto	l1049
  2134  07CC  30FF               	movlw	255
  2135  07CD  06B3               	xorwf	___ftadd@f2,f
  2136  07CE  30FF               	movlw	255
  2137  07CF  06B4               	xorwf	___ftadd@f2+1,f
  2138  07D0  30FF               	movlw	255
  2139  07D1  06B5               	xorwf	___ftadd@f2+2,f
  2140  07D2  3001               	movlw	1
  2141  07D3  07B3               	addwf	___ftadd@f2,f
  2142  07D4  3000               	movlw	0
  2143  07D5  1803               	skipnc
  2144  07D6  3001               	movlw	1
  2145  07D7  07B4               	addwf	___ftadd@f2+1,f
  2146  07D8  3000               	movlw	0
  2147  07D9  1803               	skipnc
  2148  07DA  3001               	movlw	1
  2149  07DB  07B5               	addwf	___ftadd@f2+2,f
  2150  07DC  01BA               	clrf	___ftadd@sign
  2151  07DD  0ABA               	incf	___ftadd@sign,f
  2152  07DE                     l1049:	
  2153  07DE  0833               	movf	___ftadd@f2,w
  2154  07DF  00F0               	movwf	___ftpack@arg
  2155  07E0  0834               	movf	___ftadd@f2+1,w
  2156  07E1  00F1               	movwf	___ftpack@arg+1
  2157  07E2  0835               	movf	___ftadd@f2+2,w
  2158  07E3  00F2               	movwf	___ftpack@arg+2
  2159  07E4  083C               	movf	___ftadd@exp1,w
  2160  07E5  00B6               	movwf	??___ftadd
  2161  07E6  0836               	movf	??___ftadd,w
  2162  07E7  00F3               	movwf	___ftpack@exp
  2163  07E8  083A               	movf	___ftadd@sign,w
  2164  07E9  00B7               	movwf	??___ftadd+1
  2165  07EA  0837               	movf	??___ftadd+1,w
  2166  07EB  00F4               	movwf	___ftpack@sign
  2167  07EC  3184  24C0         	fcall	___ftpack
  2168  07EE  0870               	movf	?___ftpack,w
  2169  07EF  0020               	movlb	0	; select bank0
  2170  07F0  00B0               	movwf	?___ftadd
  2171  07F1  0871               	movf	?___ftpack+1,w
  2172  07F2  00B1               	movwf	?___ftadd+1
  2173  07F3  0872               	movf	?___ftpack+2,w
  2174  07F4  00B2               	movwf	?___ftadd+2
  2175  07F5  0008               	return
  2176  07F6                     __end_of___ftadd:	
  2177                           
  2178                           	psect	text5
  2179  04C0                     __ptext5:	
  2180 ;; *************** function ___ftpack *****************
  2181 ;; Defined at:
  2182 ;;		line 62 in file "C:\Program Files (x86)\Microchip\xc8\v1.42\sources\common\float.c"
  2183 ;; Parameters:    Size  Location     Type
  2184 ;;  arg             3    0[COMMON] unsigned um
  2185 ;;  exp             1    3[COMMON] unsigned char 
  2186 ;;  sign            1    4[COMMON] unsigned char 
  2187 ;; Auto vars:     Size  Location     Type
  2188 ;;		None
  2189 ;; Return value:  Size  Location     Type
  2190 ;;                  3    0[COMMON] float 
  2191 ;; Registers used:
  2192 ;;		wreg, status,2, status,0
  2193 ;; Tracked objects:
  2194 ;;		On entry : 0/0
  2195 ;;		On exit  : 0/0
  2196 ;;		Unchanged: 0/0
  2197 ;; Data sizes:     COMMON   BANK0   BANK1   BANK2   BANK3   BANK4   BANK5   BANK6   BANK7   BANK8   BANK9  BANK10  BANK1
      +1  BANK12
  2198 ;;      Params:         5       0       0       0       0       0       0       0       0       0       0       0       
      +0       0
  2199 ;;      Locals:         0       0       0       0       0       0       0       0       0       0       0       0       
      +0       0
  2200 ;;      Temps:          3       0       0       0       0       0       0       0       0       0       0       0       
      +0       0
  2201 ;;      Totals:         8       0       0       0       0       0       0       0       0       0       0       0       
      +0       0
  2202 ;;Total ram usage:        8 bytes
  2203 ;; Hardware stack levels used:    1
  2204 ;; This function calls:
  2205 ;;		Nothing
  2206 ;; This function is called by:
  2207 ;;		___ftadd
  2208 ;;		___ftmul
  2209 ;;		___lwtoft
  2210 ;; This function uses a non-reentrant model
  2211 ;;
  2212                           
  2213                           
  2214                           ;psect for function ___ftpack
  2215  04C0                     ___ftpack:	
  2216                           
  2217                           ;incstack = 0
  2218                           ; Regs used in ___ftpack: [wreg+status,2+status,0]
  2219  04C0  0873               	movf	___ftpack@exp,w
  2220  04C1  1903               	btfsc	3,2
  2221  04C2  2CC8               	goto	l937
  2222  04C3  0872               	movf	___ftpack@arg+2,w
  2223  04C4  0471               	iorwf	___ftpack@arg+1,w
  2224  04C5  0470               	iorwf	___ftpack@arg,w
  2225  04C6  1D03               	skipz
  2226  04C7  2CD9               	goto	l943
  2227  04C8                     l937:	
  2228  04C8  3000               	movlw	0
  2229  04C9  00F0               	movwf	?___ftpack
  2230  04CA  3000               	movlw	0
  2231  04CB  00F1               	movwf	?___ftpack+1
  2232  04CC  3000               	movlw	0
  2233  04CD  00F2               	movwf	?___ftpack+2
  2234  04CE  0008               	return
  2235  04CF                     l941:	
  2236  04CF  3001               	movlw	1
  2237  04D0  00F5               	movwf	??___ftpack
  2238  04D1  0875               	movf	??___ftpack,w
  2239  04D2  07F3               	addwf	___ftpack@exp,f
  2240  04D3  3001               	movlw	1
  2241  04D4                     u685:	
  2242  04D4  36F2               	lsrf	___ftpack@arg+2,f
  2243  04D5  0CF1               	rrf	___ftpack@arg+1,f
  2244  04D6  0CF0               	rrf	___ftpack@arg,f
  2245  04D7  0B89               	decfsz	9,f
  2246  04D8  2CD4               	goto	u685
  2247  04D9                     l943:	
  2248  04D9  30FE               	movlw	254
  2249  04DA  0572               	andwf	___ftpack@arg+2,w
  2250  04DB  1903               	btfsc	3,2
  2251  04DC  2CF2               	goto	l344
  2252  04DD  2CCF               	goto	l941
  2253  04DE                     l945:	
  2254  04DE  3001               	movlw	1
  2255  04DF  00F5               	movwf	??___ftpack
  2256  04E0  0875               	movf	??___ftpack,w
  2257  04E1  07F3               	addwf	___ftpack@exp,f
  2258  04E2  3001               	movlw	1
  2259  04E3  07F0               	addwf	___ftpack@arg,f
  2260  04E4  3000               	movlw	0
  2261  04E5  1803               	skipnc
  2262  04E6  3001               	movlw	1
  2263  04E7  07F1               	addwf	___ftpack@arg+1,f
  2264  04E8  3000               	movlw	0
  2265  04E9  1803               	skipnc
  2266  04EA  3001               	movlw	1
  2267  04EB  07F2               	addwf	___ftpack@arg+2,f
  2268  04EC  3001               	movlw	1
  2269  04ED                     u705:	
  2270  04ED  36F2               	lsrf	___ftpack@arg+2,f
  2271  04EE  0CF1               	rrf	___ftpack@arg+1,f
  2272  04EF  0CF0               	rrf	___ftpack@arg,f
  2273  04F0  0B89               	decfsz	9,f
  2274  04F1  2CED               	goto	u705
  2275  04F2                     l344:	
  2276  04F2  30FF               	movlw	255
  2277  04F3  0572               	andwf	___ftpack@arg+2,w
  2278  04F4  1903               	btfsc	3,2
  2279  04F5  2CFF               	goto	l953
  2280  04F6  2CDE               	goto	l945
  2281  04F7                     l951:	
  2282  04F7  3001               	movlw	1
  2283  04F8  02F3               	subwf	___ftpack@exp,f
  2284  04F9  3001               	movlw	1
  2285  04FA                     u725:	
  2286  04FA  35F0               	lslf	___ftpack@arg,f
  2287  04FB  0DF1               	rlf	___ftpack@arg+1,f
  2288  04FC  0DF2               	rlf	___ftpack@arg+2,f
  2289  04FD  0B89               	decfsz	9,f
  2290  04FE  2CFA               	goto	u725
  2291  04FF                     l953:	
  2292  04FF  1BF1               	btfsc	___ftpack@arg+1,7
  2293  0500  2D05               	goto	l351
  2294  0501  3002               	movlw	2
  2295  0502  0273               	subwf	___ftpack@exp,w
  2296  0503  1803               	skipnc
  2297  0504  2CF7               	goto	l951
  2298  0505                     l351:	
  2299  0505  1873               	btfsc	___ftpack@exp,0
  2300  0506  2D0D               	goto	l352
  2301  0507  30FF               	movlw	255
  2302  0508  05F0               	andwf	___ftpack@arg,f
  2303  0509  307F               	movlw	127
  2304  050A  05F1               	andwf	___ftpack@arg+1,f
  2305  050B  30FF               	movlw	255
  2306  050C  05F2               	andwf	___ftpack@arg+2,f
  2307  050D                     l352:	
  2308  050D  1003               	clrc
  2309  050E  0CF3               	rrf	___ftpack@exp,f
  2310  050F  0873               	movf	___ftpack@exp,w
  2311  0510  00F5               	movwf	??___ftpack
  2312  0511  01F6               	clrf	??___ftpack+1
  2313  0512  01F7               	clrf	??___ftpack+2
  2314  0513  3010               	movlw	16
  2315  0514                     u765:	
  2316  0514  35F5               	lslf	??___ftpack,f
  2317  0515  0DF6               	rlf	??___ftpack+1,f
  2318  0516  0DF7               	rlf	??___ftpack+2,f
  2319  0517  0B89               	decfsz	9,f
  2320  0518  2D14               	goto	u765
  2321  0519  0875               	movf	??___ftpack,w
  2322  051A  04F0               	iorwf	___ftpack@arg,f
  2323  051B  0876               	movf	??___ftpack+1,w
  2324  051C  04F1               	iorwf	___ftpack@arg+1,f
  2325  051D  0877               	movf	??___ftpack+2,w
  2326  051E  04F2               	iorwf	___ftpack@arg+2,f
  2327  051F  0874               	movf	___ftpack@sign,w
  2328  0520  1903               	btfsc	3,2
  2329  0521  0008               	return
  2330  0522  17F2               	bsf	___ftpack@arg+2,7
  2331  0523  0008               	return
  2332  0524                     __end_of___ftpack:	
  2333                           
  2334                           	psect	text6
  2335  0471                     __ptext6:	
  2336 ;; *************** function _SYSTEM_Initialize *****************
  2337 ;; Defined at:
  2338 ;;		line 50 in file "mcc_generated_files/mcc.c"
  2339 ;; Parameters:    Size  Location     Type
  2340 ;;		None
  2341 ;; Auto vars:     Size  Location     Type
  2342 ;;		None
  2343 ;; Return value:  Size  Location     Type
  2344 ;;                  1    wreg      void 
  2345 ;; Registers used:
  2346 ;;		wreg, status,2, status,0, pclath, cstack
  2347 ;; Tracked objects:
  2348 ;;		On entry : 0/0
  2349 ;;		On exit  : 0/0
  2350 ;;		Unchanged: 0/0
  2351 ;; Data sizes:     COMMON   BANK0   BANK1   BANK2   BANK3   BANK4   BANK5   BANK6   BANK7   BANK8   BANK9  BANK10  BANK1
      +1  BANK12
  2352 ;;      Params:         0       0       0       0       0       0       0       0       0       0       0       0       
      +0       0
  2353 ;;      Locals:         0       0       0       0       0       0       0       0       0       0       0       0       
      +0       0
  2354 ;;      Temps:          0       0       0       0       0       0       0       0       0       0       0       0       
      +0       0
  2355 ;;      Totals:         0       0       0       0       0       0       0       0       0       0       0       0       
      +0       0
  2356 ;;Total ram usage:        0 bytes
  2357 ;; Hardware stack levels used:    1
  2358 ;; Hardware stack levels required when called:    1
  2359 ;; This function calls:
  2360 ;;		_ADC_Initialize
  2361 ;;		_OSCILLATOR_Initialize
  2362 ;;		_PIN_MANAGER_Initialize
  2363 ;;		_PWM1_Initialize
  2364 ;;		_TMR2_Initialize
  2365 ;;		_WDT_Initialize
  2366 ;; This function is called by:
  2367 ;;		_main
  2368 ;; This function uses a non-reentrant model
  2369 ;;
  2370                           
  2371                           
  2372                           ;psect for function _SYSTEM_Initialize
  2373  0471                     _SYSTEM_Initialize:	
  2374                           
  2375                           ;mcc.c: 53: PIN_MANAGER_Initialize();
  2376                           
  2377                           ;incstack = 0
  2378                           ; Regs used in _SYSTEM_Initialize: [wreg+status,2+status,0+pclath+cstack]
  2379  0471  3184  2496  3184   	fcall	_PIN_MANAGER_Initialize
  2380                           
  2381                           ;mcc.c: 54: OSCILLATOR_Initialize();
  2382  0474  3184  245B  3184   	fcall	_OSCILLATOR_Initialize
  2383                           
  2384                           ;mcc.c: 55: WDT_Initialize();
  2385  0477  3184  2433  3184   	fcall	_WDT_Initialize
  2386                           
  2387                           ;mcc.c: 56: PWM1_Initialize();
  2388  047A  3184  243D  3184   	fcall	_PWM1_Initialize
  2389                           
  2390                           ;mcc.c: 57: TMR2_Initialize();
  2391  047D  3184  244A  3184   	fcall	_TMR2_Initialize
  2392                           
  2393                           ;mcc.c: 58: ADC_Initialize();
  2394  0480  3184  2452         	fcall	_ADC_Initialize
  2395  0482  0008               	return
  2396  0483                     __end_of_SYSTEM_Initialize:	
  2397                           
  2398                           	psect	text7
  2399  0433                     __ptext7:	
  2400 ;; *************** function _WDT_Initialize *****************
  2401 ;; Defined at:
  2402 ;;		line 73 in file "mcc_generated_files/mcc.c"
  2403 ;; Parameters:    Size  Location     Type
  2404 ;;		None
  2405 ;; Auto vars:     Size  Location     Type
  2406 ;;		None
  2407 ;; Return value:  Size  Location     Type
  2408 ;;                  1    wreg      void 
  2409 ;; Registers used:
  2410 ;;		wreg
  2411 ;; Tracked objects:
  2412 ;;		On entry : 0/0
  2413 ;;		On exit  : 0/0
  2414 ;;		Unchanged: 0/0
  2415 ;; Data sizes:     COMMON   BANK0   BANK1   BANK2   BANK3   BANK4   BANK5   BANK6   BANK7   BANK8   BANK9  BANK10  BANK1
      +1  BANK12
  2416 ;;      Params:         0       0       0       0       0       0       0       0       0       0       0       0       
      +0       0
  2417 ;;      Locals:         0       0       0       0       0       0       0       0       0       0       0       0       
      +0       0
  2418 ;;      Temps:          0       0       0       0       0       0       0       0       0       0       0       0       
      +0       0
  2419 ;;      Totals:         0       0       0       0       0       0       0       0       0       0       0       0       
      +0       0
  2420 ;;Total ram usage:        0 bytes
  2421 ;; Hardware stack levels used:    1
  2422 ;; This function calls:
  2423 ;;		Nothing
  2424 ;; This function is called by:
  2425 ;;		_SYSTEM_Initialize
  2426 ;; This function uses a non-reentrant model
  2427 ;;
  2428                           
  2429                           
  2430                           ;psect for function _WDT_Initialize
  2431  0433                     _WDT_Initialize:	
  2432                           
  2433                           ;mcc.c: 76: WDTCON = 0x16;
  2434                           
  2435                           ;incstack = 0
  2436                           ; Regs used in _WDT_Initialize: [wreg]
  2437  0433  3016               	movlw	22
  2438  0434  0021               	movlb	1	; select bank1
  2439  0435  0097               	movwf	23	;volatile
  2440  0436  0008               	return
  2441  0437                     __end_of_WDT_Initialize:	
  2442                           
  2443                           	psect	text8
  2444  044A                     __ptext8:	
  2445 ;; *************** function _TMR2_Initialize *****************
  2446 ;; Defined at:
  2447 ;;		line 62 in file "mcc_generated_files/tmr2.c"
  2448 ;; Parameters:    Size  Location     Type
  2449 ;;		None
  2450 ;; Auto vars:     Size  Location     Type
  2451 ;;		None
  2452 ;; Return value:  Size  Location     Type
  2453 ;;                  1    wreg      void 
  2454 ;; Registers used:
  2455 ;;		wreg, status,2
  2456 ;; Tracked objects:
  2457 ;;		On entry : 0/0
  2458 ;;		On exit  : 0/0
  2459 ;;		Unchanged: 0/0
  2460 ;; Data sizes:     COMMON   BANK0   BANK1   BANK2   BANK3   BANK4   BANK5   BANK6   BANK7   BANK8   BANK9  BANK10  BANK1
      +1  BANK12
  2461 ;;      Params:         0       0       0       0       0       0       0       0       0       0       0       0       
      +0       0
  2462 ;;      Locals:         0       0       0       0       0       0       0       0       0       0       0       0       
      +0       0
  2463 ;;      Temps:          0       0       0       0       0       0       0       0       0       0       0       0       
      +0       0
  2464 ;;      Totals:         0       0       0       0       0       0       0       0       0       0       0       0       
      +0       0
  2465 ;;Total ram usage:        0 bytes
  2466 ;; Hardware stack levels used:    1
  2467 ;; This function calls:
  2468 ;;		Nothing
  2469 ;; This function is called by:
  2470 ;;		_SYSTEM_Initialize
  2471 ;; This function uses a non-reentrant model
  2472 ;;
  2473                           
  2474                           
  2475                           ;psect for function _TMR2_Initialize
  2476  044A                     _TMR2_Initialize:	
  2477                           
  2478                           ;tmr2.c: 67: PR2 = 0x13;
  2479                           
  2480                           ;incstack = 0
  2481                           ; Regs used in _TMR2_Initialize: [wreg+status,2]
  2482  044A  3013               	movlw	19
  2483  044B  0020               	movlb	0	; select bank0
  2484  044C  009B               	movwf	27	;volatile
  2485                           
  2486                           ;tmr2.c: 70: TMR2 = 0x00;
  2487  044D  019A               	clrf	26	;volatile
  2488                           
  2489                           ;tmr2.c: 73: PIR1bits.TMR2IF = 0;
  2490  044E  1091               	bcf	17,1	;volatile
  2491                           
  2492                           ;tmr2.c: 76: T2CON = 0x04;
  2493  044F  3004               	movlw	4
  2494  0450  009C               	movwf	28	;volatile
  2495  0451  0008               	return
  2496  0452                     __end_of_TMR2_Initialize:	
  2497                           
  2498                           	psect	text9
  2499  043D                     __ptext9:	
  2500 ;; *************** function _PWM1_Initialize *****************
  2501 ;; Defined at:
  2502 ;;		line 58 in file "mcc_generated_files/pwm1.c"
  2503 ;; Parameters:    Size  Location     Type
  2504 ;;		None
  2505 ;; Auto vars:     Size  Location     Type
  2506 ;;		None
  2507 ;; Return value:  Size  Location     Type
  2508 ;;                  1    wreg      void 
  2509 ;; Registers used:
  2510 ;;		wreg, status,2
  2511 ;; Tracked objects:
  2512 ;;		On entry : 0/0
  2513 ;;		On exit  : 0/0
  2514 ;;		Unchanged: 0/0
  2515 ;; Data sizes:     COMMON   BANK0   BANK1   BANK2   BANK3   BANK4   BANK5   BANK6   BANK7   BANK8   BANK9  BANK10  BANK1
      +1  BANK12
  2516 ;;      Params:         0       0       0       0       0       0       0       0       0       0       0       0       
      +0       0
  2517 ;;      Locals:         0       0       0       0       0       0       0       0       0       0       0       0       
      +0       0
  2518 ;;      Temps:          0       0       0       0       0       0       0       0       0       0       0       0       
      +0       0
  2519 ;;      Totals:         0       0       0       0       0       0       0       0       0       0       0       0       
      +0       0
  2520 ;;Total ram usage:        0 bytes
  2521 ;; Hardware stack levels used:    1
  2522 ;; This function calls:
  2523 ;;		Nothing
  2524 ;; This function is called by:
  2525 ;;		_SYSTEM_Initialize
  2526 ;; This function uses a non-reentrant model
  2527 ;;
  2528                           
  2529                           
  2530                           ;psect for function _PWM1_Initialize
  2531  043D                     _PWM1_Initialize:	
  2532                           
  2533                           ;pwm1.c: 62: PWM1CON = 0xC0;
  2534                           
  2535                           ;incstack = 0
  2536                           ; Regs used in _PWM1_Initialize: [wreg+status,2]
  2537  043D  30C0               	movlw	192
  2538  043E  002C               	movlb	12	; select bank12
  2539  043F  0093               	movwf	19	;volatile
  2540                           
  2541                           ;pwm1.c: 65: PWM1DCH = 0x00;
  2542  0440  0192               	clrf	18	;volatile
  2543                           
  2544                           ;pwm1.c: 68: PWM1DCL = 0x00;
  2545  0441  0191               	clrf	17	;volatile
  2546  0442  0008               	return
  2547  0443                     __end_of_PWM1_Initialize:	
  2548                           
  2549                           	psect	text10
  2550  0496                     __ptext10:	
  2551 ;; *************** function _PIN_MANAGER_Initialize *****************
  2552 ;; Defined at:
  2553 ;;		line 57 in file "mcc_generated_files/pin_manager.c"
  2554 ;; Parameters:    Size  Location     Type
  2555 ;;		None
  2556 ;; Auto vars:     Size  Location     Type
  2557 ;;		None
  2558 ;; Return value:  Size  Location     Type
  2559 ;;                  1    wreg      void 
  2560 ;; Registers used:
  2561 ;;		wreg, status,2
  2562 ;; Tracked objects:
  2563 ;;		On entry : 0/0
  2564 ;;		On exit  : 0/0
  2565 ;;		Unchanged: 0/0
  2566 ;; Data sizes:     COMMON   BANK0   BANK1   BANK2   BANK3   BANK4   BANK5   BANK6   BANK7   BANK8   BANK9  BANK10  BANK1
      +1  BANK12
  2567 ;;      Params:         0       0       0       0       0       0       0       0       0       0       0       0       
      +0       0
  2568 ;;      Locals:         0       0       0       0       0       0       0       0       0       0       0       0       
      +0       0
  2569 ;;      Temps:          0       0       0       0       0       0       0       0       0       0       0       0       
      +0       0
  2570 ;;      Totals:         0       0       0       0       0       0       0       0       0       0       0       0       
      +0       0
  2571 ;;Total ram usage:        0 bytes
  2572 ;; Hardware stack levels used:    1
  2573 ;; This function calls:
  2574 ;;		Nothing
  2575 ;; This function is called by:
  2576 ;;		_SYSTEM_Initialize
  2577 ;; This function uses a non-reentrant model
  2578 ;;
  2579                           
  2580                           
  2581                           ;psect for function _PIN_MANAGER_Initialize
  2582  0496                     _PIN_MANAGER_Initialize:	
  2583                           
  2584                           ;pin_manager.c: 62: LATA = 0x00;
  2585                           
  2586                           ;incstack = 0
  2587                           ; Regs used in _PIN_MANAGER_Initialize: [wreg+status,2]
  2588  0496  0022               	movlb	2	; select bank2
  2589  0497  018C               	clrf	12	;volatile
  2590                           
  2591                           ;pin_manager.c: 63: LATC = 0x00;
  2592  0498  018E               	clrf	14	;volatile
  2593                           
  2594                           ;pin_manager.c: 68: TRISA = 0x30;
  2595  0499  3030               	movlw	48
  2596  049A  0021               	movlb	1	; select bank1
  2597  049B  008C               	movwf	12	;volatile
  2598                           
  2599                           ;pin_manager.c: 69: TRISC = 0x1F;
  2600  049C  301F               	movlw	31
  2601  049D  008E               	movwf	14	;volatile
  2602                           
  2603                           ;pin_manager.c: 74: ANSELC = 0x0E;
  2604  049E  300E               	movlw	14
  2605  049F  0023               	movlb	3	; select bank3
  2606  04A0  008E               	movwf	14	;volatile
  2607                           
  2608                           ;pin_manager.c: 75: ANSELA = 0x10;
  2609  04A1  3010               	movlw	16
  2610  04A2  008C               	movwf	12	;volatile
  2611                           
  2612                           ;pin_manager.c: 80: WPUA = 0x00;
  2613  04A3  0024               	movlb	4	; select bank4
  2614  04A4  018C               	clrf	12	;volatile
  2615                           
  2616                           ;pin_manager.c: 81: OPTION_REGbits.nWPUEN = 1;
  2617  04A5  0021               	movlb	1	; select bank1
  2618  04A6  1795               	bsf	21,7	;volatile
  2619                           
  2620                           ;pin_manager.c: 90: APFCON = 0x00;
  2621  04A7  0022               	movlb	2	; select bank2
  2622  04A8  019D               	clrf	29	;volatile
  2623  04A9  0008               	return
  2624  04AA                     __end_of_PIN_MANAGER_Initialize:	
  2625                           
  2626                           	psect	text11
  2627  045B                     __ptext11:	
  2628 ;; *************** function _OSCILLATOR_Initialize *****************
  2629 ;; Defined at:
  2630 ;;		line 61 in file "mcc_generated_files/mcc.c"
  2631 ;; Parameters:    Size  Location     Type
  2632 ;;		None
  2633 ;; Auto vars:     Size  Location     Type
  2634 ;;		None
  2635 ;; Return value:  Size  Location     Type
  2636 ;;                  1    wreg      void 
  2637 ;; Registers used:
  2638 ;;		wreg, status,2
  2639 ;; Tracked objects:
  2640 ;;		On entry : 0/0
  2641 ;;		On exit  : 0/0
  2642 ;;		Unchanged: 0/0
  2643 ;; Data sizes:     COMMON   BANK0   BANK1   BANK2   BANK3   BANK4   BANK5   BANK6   BANK7   BANK8   BANK9  BANK10  BANK1
      +1  BANK12
  2644 ;;      Params:         0       0       0       0       0       0       0       0       0       0       0       0       
      +0       0
  2645 ;;      Locals:         0       0       0       0       0       0       0       0       0       0       0       0       
      +0       0
  2646 ;;      Temps:          0       0       0       0       0       0       0       0       0       0       0       0       
      +0       0
  2647 ;;      Totals:         0       0       0       0       0       0       0       0       0       0       0       0       
      +0       0
  2648 ;;Total ram usage:        0 bytes
  2649 ;; Hardware stack levels used:    1
  2650 ;; This function calls:
  2651 ;;		Nothing
  2652 ;; This function is called by:
  2653 ;;		_SYSTEM_Initialize
  2654 ;; This function uses a non-reentrant model
  2655 ;;
  2656                           
  2657                           
  2658                           ;psect for function _OSCILLATOR_Initialize
  2659  045B                     _OSCILLATOR_Initialize:	
  2660                           
  2661                           ;mcc.c: 64: OSCCON = 0x36;
  2662                           
  2663                           ;incstack = 0
  2664                           ; Regs used in _OSCILLATOR_Initialize: [wreg+status,2]
  2665  045B  3036               	movlw	54
  2666  045C  0021               	movlb	1	; select bank1
  2667  045D  0099               	movwf	25	;volatile
  2668                           
  2669                           ;mcc.c: 66: OSCTUNE = 0x00;
  2670  045E  0198               	clrf	24	;volatile
  2671                           
  2672                           ;mcc.c: 68: ACTCON = 0x00;
  2673  045F  0027               	movlb	7	; select bank7
  2674  0460  019B               	clrf	27	;volatile
  2675                           
  2676                           ;mcc.c: 70: BORCON = 0x00;
  2677  0461  0022               	movlb	2	; select bank2
  2678  0462  0196               	clrf	22	;volatile
  2679  0463  0008               	return
  2680  0464                     __end_of_OSCILLATOR_Initialize:	
  2681                           
  2682                           	psect	text12
  2683  0452                     __ptext12:	
  2684 ;; *************** function _ADC_Initialize *****************
  2685 ;; Defined at:
  2686 ;;		line 65 in file "mcc_generated_files/adc.c"
  2687 ;; Parameters:    Size  Location     Type
  2688 ;;		None
  2689 ;; Auto vars:     Size  Location     Type
  2690 ;;		None
  2691 ;; Return value:  Size  Location     Type
  2692 ;;                  1    wreg      void 
  2693 ;; Registers used:
  2694 ;;		wreg, status,2
  2695 ;; Tracked objects:
  2696 ;;		On entry : 0/0
  2697 ;;		On exit  : 0/0
  2698 ;;		Unchanged: 0/0
  2699 ;; Data sizes:     COMMON   BANK0   BANK1   BANK2   BANK3   BANK4   BANK5   BANK6   BANK7   BANK8   BANK9  BANK10  BANK1
      +1  BANK12
  2700 ;;      Params:         0       0       0       0       0       0       0       0       0       0       0       0       
      +0       0
  2701 ;;      Locals:         0       0       0       0       0       0       0       0       0       0       0       0       
      +0       0
  2702 ;;      Temps:          0       0       0       0       0       0       0       0       0       0       0       0       
      +0       0
  2703 ;;      Totals:         0       0       0       0       0       0       0       0       0       0       0       0       
      +0       0
  2704 ;;Total ram usage:        0 bytes
  2705 ;; Hardware stack levels used:    1
  2706 ;; This function calls:
  2707 ;;		Nothing
  2708 ;; This function is called by:
  2709 ;;		_SYSTEM_Initialize
  2710 ;; This function uses a non-reentrant model
  2711 ;;
  2712                           
  2713                           
  2714                           ;psect for function _ADC_Initialize
  2715  0452                     _ADC_Initialize:	
  2716                           
  2717                           ;adc.c: 70: ADCON0 = 0x01;
  2718                           
  2719                           ;incstack = 0
  2720                           ; Regs used in _ADC_Initialize: [wreg+status,2]
  2721  0452  3001               	movlw	1
  2722  0453  0021               	movlb	1	; select bank1
  2723  0454  009D               	movwf	29	;volatile
  2724                           
  2725                           ;adc.c: 73: ADCON1 = 0xD0;
  2726  0455  30D0               	movlw	208
  2727  0456  009E               	movwf	30	;volatile
  2728                           
  2729                           ;adc.c: 76: ADCON2 = 0x00;
  2730  0457  019F               	clrf	31	;volatile
  2731                           
  2732                           ;adc.c: 79: ADRESL = 0x00;
  2733  0458  019B               	clrf	27	;volatile
  2734                           
  2735                           ;adc.c: 82: ADRESH = 0x00;
  2736  0459  019C               	clrf	28	;volatile
  2737  045A  0008               	return
  2738  045B                     __end_of_ADC_Initialize:	
  2739                           
  2740                           	psect	text13
  2741  04AA                     __ptext13:	
  2742 ;; *************** function _PWM1_LoadDutyValue *****************
  2743 ;; Defined at:
  2744 ;;		line 72 in file "mcc_generated_files/pwm1.c"
  2745 ;; Parameters:    Size  Location     Type
  2746 ;;  dutyValue       2    0[COMMON] unsigned int 
  2747 ;; Auto vars:     Size  Location     Type
  2748 ;;		None
  2749 ;; Return value:  Size  Location     Type
  2750 ;;                  1    wreg      void 
  2751 ;; Registers used:
  2752 ;;		wreg, status,2, status,0
  2753 ;; Tracked objects:
  2754 ;;		On entry : 0/0
  2755 ;;		On exit  : 0/0
  2756 ;;		Unchanged: 0/0
  2757 ;; Data sizes:     COMMON   BANK0   BANK1   BANK2   BANK3   BANK4   BANK5   BANK6   BANK7   BANK8   BANK9  BANK10  BANK1
      +1  BANK12
  2758 ;;      Params:         2       0       0       0       0       0       0       0       0       0       0       0       
      +0       0
  2759 ;;      Locals:         0       0       0       0       0       0       0       0       0       0       0       0       
      +0       0
  2760 ;;      Temps:          2       0       0       0       0       0       0       0       0       0       0       0       
      +0       0
  2761 ;;      Totals:         4       0       0       0       0       0       0       0       0       0       0       0       
      +0       0
  2762 ;;Total ram usage:        4 bytes
  2763 ;; Hardware stack levels used:    1
  2764 ;; This function calls:
  2765 ;;		Nothing
  2766 ;; This function is called by:
  2767 ;;		_main
  2768 ;; This function uses a non-reentrant model
  2769 ;;
  2770                           
  2771                           
  2772                           ;psect for function _PWM1_LoadDutyValue
  2773  04AA                     _PWM1_LoadDutyValue:	
  2774                           
  2775                           ;pwm1.c: 75: PWM1DCH = (dutyValue & 0x03FC)>>2;
  2776                           
  2777                           ;incstack = 0
  2778                           ; Regs used in _PWM1_LoadDutyValue: [wreg+status,2+status,0]
  2779  04AA  0871               	movf	PWM1_LoadDutyValue@dutyValue+1,w
  2780  04AB  00F3               	movwf	??_PWM1_LoadDutyValue+1
  2781  04AC  0870               	movf	PWM1_LoadDutyValue@dutyValue,w
  2782  04AD  00F2               	movwf	??_PWM1_LoadDutyValue
  2783  04AE  36F3               	lsrf	??_PWM1_LoadDutyValue+1,f
  2784  04AF  0CF2               	rrf	??_PWM1_LoadDutyValue,f
  2785  04B0  36F3               	lsrf	??_PWM1_LoadDutyValue+1,f
  2786  04B1  0CF2               	rrf	??_PWM1_LoadDutyValue,f
  2787  04B2  0872               	movf	??_PWM1_LoadDutyValue,w
  2788  04B3  002C               	movlb	12	; select bank12
  2789  04B4  0092               	movwf	18	;volatile
  2790                           
  2791                           ;pwm1.c: 78: PWM1DCL = (dutyValue & 0x0003)<<6;
  2792  04B5  0870               	movf	PWM1_LoadDutyValue@dutyValue,w
  2793  04B6  3903               	andlw	3
  2794  04B7  00F2               	movwf	??_PWM1_LoadDutyValue
  2795  04B8  3005               	movlw	5
  2796  04B9                     u785:	
  2797  04B9  35F2               	lslf	??_PWM1_LoadDutyValue,f
  2798  04BA  3EFF               	addlw	-1
  2799  04BB  1D03               	skipz
  2800  04BC  2CB9               	goto	u785
  2801  04BD  3572               	lslf	??_PWM1_LoadDutyValue,w
  2802  04BE  0091               	movwf	17	;volatile
  2803  04BF  0008               	return
  2804  04C0                     __end_of_PWM1_LoadDutyValue:	
  2805                           
  2806                           	psect	text14
  2807  0430                     __ptext14:	
  2808 ;; *************** function _ADC_StartConversion *****************
  2809 ;; Defined at:
  2810 ;;		line 94 in file "mcc_generated_files/adc.c"
  2811 ;; Parameters:    Size  Location     Type
  2812 ;;		None
  2813 ;; Auto vars:     Size  Location     Type
  2814 ;;		None
  2815 ;; Return value:  Size  Location     Type
  2816 ;;                  1    wreg      void 
  2817 ;; Registers used:
  2818 ;;		None
  2819 ;; Tracked objects:
  2820 ;;		On entry : 0/0
  2821 ;;		On exit  : 0/0
  2822 ;;		Unchanged: 0/0
  2823 ;; Data sizes:     COMMON   BANK0   BANK1   BANK2   BANK3   BANK4   BANK5   BANK6   BANK7   BANK8   BANK9  BANK10  BANK1
      +1  BANK12
  2824 ;;      Params:         0       0       0       0       0       0       0       0       0       0       0       0       
      +0       0
  2825 ;;      Locals:         0       0       0       0       0       0       0       0       0       0       0       0       
      +0       0
  2826 ;;      Temps:          0       0       0       0       0       0       0       0       0       0       0       0       
      +0       0
  2827 ;;      Totals:         0       0       0       0       0       0       0       0       0       0       0       0       
      +0       0
  2828 ;;Total ram usage:        0 bytes
  2829 ;; Hardware stack levels used:    1
  2830 ;; This function calls:
  2831 ;;		Nothing
  2832 ;; This function is called by:
  2833 ;;		_main
  2834 ;; This function uses a non-reentrant model
  2835 ;;
  2836                           
  2837                           
  2838                           ;psect for function _ADC_StartConversion
  2839  0430                     _ADC_StartConversion:	
  2840                           
  2841                           ;adc.c: 97: ADCON0bits.GO_nDONE = 1;
  2842                           
  2843                           ;incstack = 0
  2844                           ; Regs used in _ADC_StartConversion: []
  2845  0430  0021               	movlb	1	; select bank1
  2846  0431  149D               	bsf	29,1	;volatile
  2847  0432  0008               	return
  2848  0433                     __end_of_ADC_StartConversion:	
  2849                           
  2850                           	psect	text15
  2851  0464                     __ptext15:	
  2852 ;; *************** function _ADC_SelectChannel *****************
  2853 ;; Defined at:
  2854 ;;		line 86 in file "mcc_generated_files/adc.c"
  2855 ;; Parameters:    Size  Location     Type
  2856 ;;  channel         1    wreg     enum E2462
  2857 ;; Auto vars:     Size  Location     Type
  2858 ;;  channel         1    1[COMMON] enum E2462
  2859 ;; Return value:  Size  Location     Type
  2860 ;;                  1    wreg      void 
  2861 ;; Registers used:
  2862 ;;		wreg, status,2, status,0
  2863 ;; Tracked objects:
  2864 ;;		On entry : 0/0
  2865 ;;		On exit  : 0/0
  2866 ;;		Unchanged: 0/0
  2867 ;; Data sizes:     COMMON   BANK0   BANK1   BANK2   BANK3   BANK4   BANK5   BANK6   BANK7   BANK8   BANK9  BANK10  BANK1
      +1  BANK12
  2868 ;;      Params:         0       0       0       0       0       0       0       0       0       0       0       0       
      +0       0
  2869 ;;      Locals:         1       0       0       0       0       0       0       0       0       0       0       0       
      +0       0
  2870 ;;      Temps:          1       0       0       0       0       0       0       0       0       0       0       0       
      +0       0
  2871 ;;      Totals:         2       0       0       0       0       0       0       0       0       0       0       0       
      +0       0
  2872 ;;Total ram usage:        2 bytes
  2873 ;; Hardware stack levels used:    1
  2874 ;; This function calls:
  2875 ;;		Nothing
  2876 ;; This function is called by:
  2877 ;;		_main
  2878 ;; This function uses a non-reentrant model
  2879 ;;
  2880                           
  2881                           
  2882                           ;psect for function _ADC_SelectChannel
  2883  0464                     _ADC_SelectChannel:	
  2884                           
  2885                           ;incstack = 0
  2886                           ; Regs used in _ADC_SelectChannel: [wreg+status,2+status,0]
  2887                           ;ADC_SelectChannel@channel stored from wreg
  2888  0464  00F1               	movwf	ADC_SelectChannel@channel
  2889                           
  2890                           ;adc.c: 89: ADCON0bits.CHS = channel;
  2891  0465  0871               	movf	ADC_SelectChannel@channel,w
  2892  0466  00F0               	movwf	??_ADC_SelectChannel
  2893  0467  0DF0               	rlf	??_ADC_SelectChannel,f
  2894  0468  0DF0               	rlf	??_ADC_SelectChannel,f
  2895  0469  0021               	movlb	1	; select bank1
  2896  046A  081D               	movf	29,w	;volatile
  2897  046B  0670               	xorwf	??_ADC_SelectChannel,w
  2898  046C  3983               	andlw	-125
  2899  046D  0670               	xorwf	??_ADC_SelectChannel,w
  2900  046E  009D               	movwf	29	;volatile
  2901                           
  2902                           ;adc.c: 91: ADCON0bits.ADON = 1;
  2903  046F  141D               	bsf	29,0	;volatile
  2904  0470  0008               	return
  2905  0471                     __end_of_ADC_SelectChannel:	
  2906                           
  2907                           	psect	text16
  2908  0443                     __ptext16:	
  2909 ;; *************** function _ADC_IsConversionDone *****************
  2910 ;; Defined at:
  2911 ;;		line 101 in file "mcc_generated_files/adc.c"
  2912 ;; Parameters:    Size  Location     Type
  2913 ;;		None
  2914 ;; Auto vars:     Size  Location     Type
  2915 ;;		None
  2916 ;; Return value:  Size  Location     Type
  2917 ;;                  1    wreg      unsigned char 
  2918 ;; Registers used:
  2919 ;;		wreg, status,0
  2920 ;; Tracked objects:
  2921 ;;		On entry : 0/0
  2922 ;;		On exit  : 0/0
  2923 ;;		Unchanged: 0/0
  2924 ;; Data sizes:     COMMON   BANK0   BANK1   BANK2   BANK3   BANK4   BANK5   BANK6   BANK7   BANK8   BANK9  BANK10  BANK1
      +1  BANK12
  2925 ;;      Params:         0       0       0       0       0       0       0       0       0       0       0       0       
      +0       0
  2926 ;;      Locals:         0       0       0       0       0       0       0       0       0       0       0       0       
      +0       0
  2927 ;;      Temps:          0       0       0       0       0       0       0       0       0       0       0       0       
      +0       0
  2928 ;;      Totals:         0       0       0       0       0       0       0       0       0       0       0       0       
      +0       0
  2929 ;;Total ram usage:        0 bytes
  2930 ;; Hardware stack levels used:    1
  2931 ;; This function calls:
  2932 ;;		Nothing
  2933 ;; This function is called by:
  2934 ;;		_main
  2935 ;; This function uses a non-reentrant model
  2936 ;;
  2937                           
  2938                           
  2939                           ;psect for function _ADC_IsConversionDone
  2940  0443                     _ADC_IsConversionDone:	
  2941                           
  2942                           ;adc.c: 104: return ((bool)(!ADCON0bits.GO_nDONE));
  2943                           
  2944                           ;incstack = 0
  2945                           ; Regs used in _ADC_IsConversionDone: [wreg+status,0]
  2946  0443  1003               	clrc
  2947  0444  0021               	movlb	1	; select bank1
  2948  0445  1C9D               	btfss	29,1	;volatile
  2949  0446  1403               	setc
  2950  0447  3000               	movlw	0
  2951  0448  3D09               	addwfc	9,w
  2952  0449  0008               	return
  2953  044A                     __end_of_ADC_IsConversionDone:	
  2954                           
  2955                           	psect	text17
  2956  0437                     __ptext17:	
  2957 ;; *************** function _ADC_GetConversionResult *****************
  2958 ;; Defined at:
  2959 ;;		line 107 in file "mcc_generated_files/adc.c"
  2960 ;; Parameters:    Size  Location     Type
  2961 ;;		None
  2962 ;; Auto vars:     Size  Location     Type
  2963 ;;		None
  2964 ;; Return value:  Size  Location     Type
  2965 ;;                  2    0[COMMON] unsigned int 
  2966 ;; Registers used:
  2967 ;;		wreg
  2968 ;; Tracked objects:
  2969 ;;		On entry : 0/0
  2970 ;;		On exit  : 0/0
  2971 ;;		Unchanged: 0/0
  2972 ;; Data sizes:     COMMON   BANK0   BANK1   BANK2   BANK3   BANK4   BANK5   BANK6   BANK7   BANK8   BANK9  BANK10  BANK1
      +1  BANK12
  2973 ;;      Params:         2       0       0       0       0       0       0       0       0       0       0       0       
      +0       0
  2974 ;;      Locals:         0       0       0       0       0       0       0       0       0       0       0       0       
      +0       0
  2975 ;;      Temps:          0       0       0       0       0       0       0       0       0       0       0       0       
      +0       0
  2976 ;;      Totals:         2       0       0       0       0       0       0       0       0       0       0       0       
      +0       0
  2977 ;;Total ram usage:        2 bytes
  2978 ;; Hardware stack levels used:    1
  2979 ;; This function calls:
  2980 ;;		Nothing
  2981 ;; This function is called by:
  2982 ;;		_main
  2983 ;; This function uses a non-reentrant model
  2984 ;;
  2985                           
  2986                           
  2987                           ;psect for function _ADC_GetConversionResult
  2988  0437                     _ADC_GetConversionResult:	
  2989                           
  2990                           ;adc.c: 110: return ((adc_result_t)((ADRESH << 8) + ADRESL));
  2991                           
  2992                           ;incstack = 0
  2993                           ; Regs used in _ADC_GetConversionResult: [wreg]
  2994  0437  0021               	movlb	1	; select bank1
  2995  0438  081C               	movf	28,w	;volatile
  2996  0439  00F1               	movwf	?_ADC_GetConversionResult+1
  2997  043A  081B               	movf	27,w	;volatile
  2998  043B  00F0               	movwf	?_ADC_GetConversionResult
  2999  043C  0008               	return
  3000  043D                     __end_of_ADC_GetConversionResult:	
  3001  007E                     btemp	set	126	;btemp
  3002  007E                     wtemp0	set	126


Data Sizes:
    Strings     0
    Constant    0
    Data        0
    BSS         6
    Persistent  0
    Stack       0

Auto Spaces:
    Space          Size  Autos    Used
    COMMON           14     14      14
    BANK0            80     43      49
    BANK1            80      0       0
    BANK2            80      0       0
    BANK3            80      0       0
    BANK4            80      0       0
    BANK5            80      0       0
    BANK6            80      0       0
    BANK7            80      0       0
    BANK8            80      0       0
    BANK9            80      0       0
    BANK10           80      0       0
    BANK11           80      0       0
    BANK12           48      0       0

Pointer List with Targets:

    None.

Critical Paths under _main in COMMON

    _main->___lwtoft
    ___lwtoft->___ftpack
    ___fttol->___lwtoft
    ___ftmul->___lwtoft
    ___ftadd->___lwtoft

Critical Paths under _main in BANK0

    _main->___fttol
    ___fttol->___ftadd
    ___ftadd->___ftmul

Critical Paths under _main in BANK1

    None.

Critical Paths under _main in BANK2

    None.

Critical Paths under _main in BANK3

    None.

Critical Paths under _main in BANK4

    None.

Critical Paths under _main in BANK5

    None.

Critical Paths under _main in BANK6

    None.

Critical Paths under _main in BANK7

    None.

Critical Paths under _main in BANK8

    None.

Critical Paths under _main in BANK9

    None.

Critical Paths under _main in BANK10

    None.

Critical Paths under _main in BANK11

    None.

Critical Paths under _main in BANK12

    None.

Call Graph Tables:

 ---------------------------------------------------------------------------------
 (Depth) Function   	        Calls       Base Space   Used Autos Params    Refs
 ---------------------------------------------------------------------------------
 (0) _main                                                 2     2      0    8213
                                             12 COMMON     2     2      0
            _ADC_GetConversionResult
               _ADC_IsConversionDone
                  _ADC_SelectChannel
                _ADC_StartConversion
                 _PWM1_LoadDutyValue
                  _SYSTEM_Initialize
                            ___ftadd
                            ___ftmul
                            ___fttol
                           ___lwtoft
 ---------------------------------------------------------------------------------
 (1) ___lwtoft                                             4     1      3    2117
                                              8 COMMON     4     1      3
                           ___ftpack
 ---------------------------------------------------------------------------------
 (1) ___fttol                                             14    10      4     316
                                             29 BANK0     14    10      4
                            ___ftadd (ARG)
                            ___ftmul (ARG)
                           ___lwtoft (ARG)
 ---------------------------------------------------------------------------------
 (1) ___ftmul                                             16    10      6    2485
                                              0 BANK0     16    10      6
                           ___ftpack
                           ___lwtoft (ARG)
 ---------------------------------------------------------------------------------
 (1) ___ftadd                                             13     7      6    3101
                                             16 BANK0     13     7      6
                            ___ftmul (ARG)
                           ___ftpack
                           ___lwtoft (ARG)
 ---------------------------------------------------------------------------------
 (2) ___ftpack                                             8     3      5    2031
                                              0 COMMON     8     3      5
 ---------------------------------------------------------------------------------
 (1) _SYSTEM_Initialize                                    0     0      0       0
                     _ADC_Initialize
              _OSCILLATOR_Initialize
             _PIN_MANAGER_Initialize
                    _PWM1_Initialize
                    _TMR2_Initialize
                     _WDT_Initialize
 ---------------------------------------------------------------------------------
 (2) _WDT_Initialize                                       0     0      0       0
 ---------------------------------------------------------------------------------
 (2) _TMR2_Initialize                                      0     0      0       0
 ---------------------------------------------------------------------------------
 (2) _PWM1_Initialize                                      0     0      0       0
 ---------------------------------------------------------------------------------
 (2) _PIN_MANAGER_Initialize                               0     0      0       0
 ---------------------------------------------------------------------------------
 (2) _OSCILLATOR_Initialize                                0     0      0       0
 ---------------------------------------------------------------------------------
 (2) _ADC_Initialize                                       0     0      0       0
 ---------------------------------------------------------------------------------
 (1) _PWM1_LoadDutyValue                                   4     2      2     172
                                              0 COMMON     4     2      2
 ---------------------------------------------------------------------------------
 (1) _ADC_StartConversion                                  0     0      0       0
 ---------------------------------------------------------------------------------
 (1) _ADC_SelectChannel                                    2     2      0      22
                                              0 COMMON     2     2      0
 ---------------------------------------------------------------------------------
 (1) _ADC_IsConversionDone                                 0     0      0       0
 ---------------------------------------------------------------------------------
 (1) _ADC_GetConversionResult                              2     0      2       0
                                              0 COMMON     2     0      2
 ---------------------------------------------------------------------------------
 Estimated maximum stack depth 2
 ---------------------------------------------------------------------------------

 Call Graph Graphs:

 _main (ROOT)
   _ADC_GetConversionResult
   _ADC_IsConversionDone
   _ADC_SelectChannel
   _ADC_StartConversion
   _PWM1_LoadDutyValue
   _SYSTEM_Initialize
     _ADC_Initialize
     _OSCILLATOR_Initialize
     _PIN_MANAGER_Initialize
     _PWM1_Initialize
     _TMR2_Initialize
     _WDT_Initialize
   ___ftadd
     ___ftmul (ARG)
       ___ftpack
       ___lwtoft (ARG)
         ___ftpack
     ___ftpack (ARG)
     ___lwtoft (ARG)
       ___ftpack
   ___ftmul
     ___ftpack
     ___lwtoft (ARG)
       ___ftpack
   ___fttol
     ___ftadd (ARG)
       ___ftmul (ARG)
         ___ftpack
         ___lwtoft (ARG)
           ___ftpack
       ___ftpack (ARG)
       ___lwtoft (ARG)
         ___ftpack
     ___ftmul (ARG)
       ___ftpack
       ___lwtoft (ARG)
         ___ftpack
     ___lwtoft (ARG)
       ___ftpack
   ___lwtoft
     ___ftpack

 Address spaces:
Name               Size   Autos  Total    Cost      Usage
BIGRAM             3F0      0       0       0        0.0%
NULL                 0      0       0       0        0.0%
CODE                 0      0       0       0        0.0%
BITCOMMON            E      0       0       1        0.0%
BITSFR0              0      0       0       1        0.0%
SFR0                 0      0       0       1        0.0%
COMMON               E      E       E       2      100.0%
BITSFR1              0      0       0       2        0.0%
SFR1                 0      0       0       2        0.0%
BITSFR2              0      0       0       3        0.0%
SFR2                 0      0       0       3        0.0%
STACK                0      0       0       3        0.0%
BITBANK0            50      0       0       4        0.0%
BITSFR3              0      0       0       4        0.0%
SFR3                 0      0       0       4        0.0%
BANK0               50     2B      31       5       61.3%
BITSFR4              0      0       0       5        0.0%
SFR4                 0      0       0       5        0.0%
BITBANK1            50      0       0       6        0.0%
BITSFR5              0      0       0       6        0.0%
SFR5                 0      0       0       6        0.0%
BANK1               50      0       0       7        0.0%
BITSFR6              0      0       0       7        0.0%
SFR6                 0      0       0       7        0.0%
BITBANK2            50      0       0       8        0.0%
BITSFR7              0      0       0       8        0.0%
SFR7                 0      0       0       8        0.0%
BANK2               50      0       0       9        0.0%
BITSFR8              0      0       0       9        0.0%
SFR8                 0      0       0       9        0.0%
BITBANK3            50      0       0      10        0.0%
BITSFR9              0      0       0      10        0.0%
SFR9                 0      0       0      10        0.0%
BANK3               50      0       0      11        0.0%
BITSFR10             0      0       0      11        0.0%
SFR10                0      0       0      11        0.0%
BITBANK4            50      0       0      12        0.0%
BITSFR11             0      0       0      12        0.0%
SFR11                0      0       0      12        0.0%
BANK4               50      0       0      13        0.0%
BITSFR12             0      0       0      13        0.0%
SFR12                0      0       0      13        0.0%
BITBANK5            50      0       0      14        0.0%
BITSFR13             0      0       0      14        0.0%
SFR13                0      0       0      14        0.0%
BANK5               50      0       0      15        0.0%
BITSFR14             0      0       0      15        0.0%
SFR14                0      0       0      15        0.0%
BITBANK6            50      0       0      16        0.0%
BITSFR15             0      0       0      16        0.0%
SFR15                0      0       0      16        0.0%
BANK6               50      0       0      17        0.0%
BITSFR16             0      0       0      17        0.0%
SFR16                0      0       0      17        0.0%
BITBANK7            50      0       0      18        0.0%
BITSFR17             0      0       0      18        0.0%
SFR17                0      0       0      18        0.0%
BANK7               50      0       0      19        0.0%
BITSFR18             0      0       0      19        0.0%
SFR18                0      0       0      19        0.0%
BITSFR19             0      0       0      20        0.0%
SFR19                0      0       0      20        0.0%
ABS                  0      0      3F      20        0.0%
BITBANK8            50      0       0      21        0.0%
BITSFR20             0      0       0      21        0.0%
SFR20                0      0       0      21        0.0%
BANK8               50      0       0      22        0.0%
BITSFR21             0      0       0      22        0.0%
SFR21                0      0       0      22        0.0%
BITBANK9            50      0       0      23        0.0%
BITSFR22             0      0       0      23        0.0%
SFR22                0      0       0      23        0.0%
BANK9               50      0       0      24        0.0%
BITSFR23             0      0       0      24        0.0%
SFR23                0      0       0      24        0.0%
BITBANK10           50      0       0      25        0.0%
BITSFR24             0      0       0      25        0.0%
SFR24                0      0       0      25        0.0%
BANK10              50      0       0      26        0.0%
BITSFR25             0      0       0      26        0.0%
SFR25                0      0       0      26        0.0%
BITBANK11           50      0       0      27        0.0%
BITSFR26             0      0       0      27        0.0%
SFR26                0      0       0      27        0.0%
BANK11              50      0       0      28        0.0%
BITSFR27             0      0       0      28        0.0%
SFR27                0      0       0      28        0.0%
BITBANK12           30      0       0      29        0.0%
BITSFR28             0      0       0      29        0.0%
SFR28                0      0       0      29        0.0%
BANK12              30      0       0      30        0.0%
BITSFR29             0      0       0      30        0.0%
SFR29                0      0       0      30        0.0%
BITSFR30             0      0       0      31        0.0%
SFR30                0      0       0      31        0.0%
DATA                 0      0      3F      31        0.0%
BITSFR31             0      0       0      32        0.0%
SFR31                0      0       0      32        0.0%


Microchip Technology PIC Macro Assembler V1.42 build -159332390 
Symbol Table                                                                                   Thu Oct 04 22:52:18 2018

                     __CFG_CP$OFF 0000                      ___ftadd@exp1 003C                      ___ftadd@exp2 003B  
                    ___ftadd@sign 003A                               l351 0505                               l352 050D  
                             l344 04F2                               l435 0591                               l375 079F  
                             l941 04CF                               l951 04F7                               l943 04D9  
                             l953 04FF                               l945 04DE                               l937 04C8  
                             l993 072F                               l989 0728                               l999 073E  
                             _PR2 001B                               u705 04ED                               u725 04FA  
                             u915 076C                               u765 0514                               u685 04D4  
                             u785 04B9                               u945 077F                               u885 0759  
                             u975 0792                   _TMR2_Initialize 044A                      __CFG_BORV$LO 0000  
                             wreg 0009                      __CFG_IESO$ON 0000                      __CFG_LVP$OFF 0000  
                            l1011 0758                              l1021 077A                              l1031 079B  
                            l1023 077E                              l1017 076B                              l1035 07B1  
                            l1019 0775                              l1029 0791                              l1141 05A2  
                            l1109 053D                              l1039 07C3                              l1135 0588  
                            l1127 056D                              l1049 07DE                              l1081 06BC  
                            l1065 0679                              l1137 0594                              l1129 057B  
                            l1153 05C8                              l1059 0663                              l1171 062F  
                            l1163 05F0                              l1093 06D8                              l1077 06B4  
                            l1089 06D0                              l1177 0644                              l1179 0647  
         __end_of_PWM1_Initialize 0443                              u1115 06D9                              u1125 06DF  
                            u1045 0685                              u1055 0695                              u1215 0589  
                            u1075 06BD                              u1155 0544                              u1085 06C3  
                            _LATA 010C                              _LATC 010E                              u1185 056E  
                            u1297 05BF                              _TMR2 001A                              _WPUA 020C  
                    __CFG_WRT$OFF 0000                     __CFG_FCMEN$ON 0000                              _Temp 004F  
                            _main 05AB                      ___ftpack@arg 0070                      ___ftpack@exp 0073  
                            btemp 007E                     __CFG_BOREN$ON 0000                              start 0003  
             __CFG_PLLEN$DISABLED 0000                     __CFG_MCLRE$ON 0000                      ___ftmul@cntr 002E  
                    ___ftmul@sign 002F                      ___fttol@exp1 004A                      ___fttol@lval 0046  
  __size_of_OSCILLATOR_Initialize 0009     __end_of_OSCILLATOR_Initialize 0464                             ?_main 0070  
                 __end_of___ftadd 07F6                     __CFG_WDTE$OFF 0000                   __end_of___ftmul 0700  
                 __end_of___fttol 05AB                             _T2CON 001C                             _DUTYC 004D  
                           _TRISA 008C                             _TRISC 008E  __size_of_ADC_GetConversionResult 0006  
                  _WDT_Initialize 0433                     ___ftpack@sign 0074                             status 0003  
                           wtemp0 007E                   __initialization 07F6                      __end_of_main 064C  
         __end_of_TMR2_Initialize 0452                    __CFG_LPBOR$OFF 0000                            ??_main 007C  
                   ___fttol@sign1 0045               __CFG_USBLSCLK$48MHz 0000            __end_of_WDT_Initialize 0437  
   __size_of_ADC_IsConversionDone 0007                            _ADCON0 009D                            _ADCON1 009E  
                          _ADCON2 009F                            _ACTCON 039B                            _ADRESH 009C  
                          _ADRESL 009B                            _APFCON 011D                            _ANSELA 018C  
                          _ANSELC 018E                  __end_of___ftpack 0524                            _BORCON 0116  
                ?_PWM1_Initialize 0070                  __end_of___lwtoft 0496                            _OSCCON 0099  
                          _WDTCON 0097                    __CFG_PWRTE$OFF 0000                         ??___ftadd 0036  
                  __CFG_STVREN$ON 0000                         ??___ftmul 0026                         ??___fttol 0041  
           ___ftmul@f3_as_product 002B                   ?_WDT_Initialize 0070                 _SYSTEM_Initialize 0471  
         __end_of__initialization 07FD                        ___ftadd@f1 0030                        ___ftadd@f2 0033  
              ?_SYSTEM_Initialize 0070       PWM1_LoadDutyValue@dutyValue 0070                        ___ftmul@f1 0020  
                      ___ftmul@f2 0023                        ___fttol@f1 003D      __size_of_ADC_StartConversion 0003  
                  __pcstackCOMMON 0070               ??_SYSTEM_Initialize 0070                _PWM1_LoadDutyValue 04AA  
                ?_TMR2_Initialize 0070                        ___lwtoft@c 0078           _ADC_GetConversionResult 0437  
                  _OPTION_REGbits 0095               ?_PWM1_LoadDutyValue 0070         __end_of_SYSTEM_Initialize 0483  
                      __pbssBANK0 004B              ??_PWM1_LoadDutyValue 0072                        __pmaintext 05AB  
                 __CFG_PLLMULT$4x 0000                         ?___ftpack 0070           __size_of_ADC_Initialize 0009  
                       ?___lwtoft 0078                           _PWM1DCH 0612                           _PWM1DCL 0611  
                         _OSCTUNE 0098                           _PWM1CON 0613                           ___ftadd 0700  
                         ___ftmul 064C                           ___fttol 0524         ??_ADC_GetConversionResult 0072  
                      ??___ftpack 0075                           __ptext1 0483                           __ptext2 0524  
                         __ptext3 064C                           __ptext4 0700                           __ptext5 04C0  
                         __ptext6 0471                           __ptext7 0433                           __ptext8 044A  
                         __ptext9 043D                        ??___lwtoft 007B             _OSCILLATOR_Initialize 045B  
                       _T2CONbits 001C          ??_PIN_MANAGER_Initialize 0070        __size_of_SYSTEM_Initialize 0012  
            end_of_initialization 07FD      __end_of_ADC_IsConversionDone 044A                  ??_WDT_Initialize 0070  
                __CFG_FOSC$INTOSC 0000               _ADC_StartConversion 0430          __size_of_PWM1_Initialize 0006  
                     ___ftmul@exp 002A              ?_ADC_StartConversion 0070                    _ADC_Initialize 0452  
          ?_OSCILLATOR_Initialize 0070               start_initialization 07F6   __size_of_PIN_MANAGER_Initialize 0014  
           ??_ADC_StartConversion 0070                         _ValoreADC 004B            __end_of_ADC_Initialize 045B  
               __size_of___ftpack 0064                         ___latbits 0002                 __size_of___lwtoft 0013  
                   __pcstackBANK0 0020              _ADC_IsConversionDone 0443          __size_of_TMR2_Initialize 0008  
     __size_of_PWM1_LoadDutyValue 0016            _PIN_MANAGER_Initialize 0496                 _ADC_SelectChannel 0464  
                        ?___ftadd 0030                          ?___ftmul 0020                          ?___fttol 003D  
                 ?_ADC_Initialize 0070                ?_ADC_SelectChannel 0070                 ??_PWM1_Initialize 0070  
             ??_ADC_SelectChannel 0070             ?_ADC_IsConversionDone 0070         __end_of_ADC_SelectChannel 0471  
                        _PIR1bits 0011                        _ADCON0bits 009D          ADC_SelectChannel@channel 0071  
               ??_TMR2_Initialize 0070          ?_ADC_GetConversionResult 0070           ??_OSCILLATOR_Initialize 0070  
                __size_of___ftadd 00F6                  __size_of___ftmul 00B4                  __size_of___fttol 0087  
                        ___ftpack 04C0                          ___lwtoft 0483            ??_ADC_IsConversionDone 0070  
                        __ptext10 0496                          __ptext11 045B                          __ptext12 0452  
                        __ptext13 04AA                          __ptext14 0430                          __ptext15 0464  
                        __ptext16 0443                          __ptext17 0437                     __size_of_main 00A1  
      __size_of_ADC_SelectChannel 000D           __size_of_WDT_Initialize 0004       __end_of_ADC_StartConversion 0433  
         ?_PIN_MANAGER_Initialize 0070   __end_of_ADC_GetConversionResult 043D                 __CFG_CLKOUTEN$OFF 0000  
                 _PWM1_Initialize 043D                  ??_ADC_Initialize 0070               __CFG_CPUDIV$CLKDIV2 0000  
  __end_of_PIN_MANAGER_Initialize 04AA        __end_of_PWM1_LoadDutyValue 04C0  
