

Microchip Technology PIC LITE Macro Assembler V2.00 build -1524193055 
                                                                                               Sun Oct 07 03:42:38 2018

Microchip Technology Omniscient Code Generator v2.00 (Free mode) build 20180527130849
     1  0000                     
      + 0000                     
     2                           ; Version 2.00
     3                           ; Generated 27/05/2018 GMT
     4                           
     5                           ; 
     6                           ; Copyright © 2018, Microchip Technology Inc. and its subsidiaries ("Microchip")
     7                           ; All rights reserved.
     8                           ; 
     9                           ; This software is developed by Microchip Technology Inc. and its subsidiaries ("Microch
                                 ip").
    10                           ; 
    11                           ; Redistribution and use in source and binary forms, with or without modification, are
    12                           ; permitted provided that the following conditions are met:
    13                           ; 
    14                           ;     1. Redistributions of source code must retain the above copyright notice, this lis
                                 t of
    15                           ;        conditions and the following disclaimer.
    16                           ; 
    17                           ;     2. Redistributions in binary form must reproduce the above copyright notice, this 
                                 list
    18                           ;        of conditions and the following disclaimer in the documentation and/or other
    19                           ;        materials provided with the distribution.
    20                           ; 
    21                           ;     3. Microchip's name may not be used to endorse or promote products derived from th
                                 is
    22                           ;        software without specific prior written permission.
    23                           ; 
    24                           ; THIS SOFTWARE IS PROVIDED BY MICROCHIP "AS IS" AND ANY EXPRESS OR IMPLIED WARRANTIES,

    25                           ; INCLUDING, BUT NOT LIMITED TO, THE IMPLIED WARRANTIES OF MERCHANTABILITY AND FITNESS F
                                 OR
    26                           ; PURPOSE ARE DISCLAIMED.  IN NO EVENT SHALL MICROCHIP BE LIABLE FOR ANY DIRECT, INDIREC
                                 T,
    27                           ; INCIDENTAL, SPECIAL, EXEMPLARY, OR CONSEQUENTIAL DAMAGES (INCLUDING BUT NOT LIMITED TO
                                 
    28                           ; PROCUREMENT OF SUBSTITUTE GOODS OR SERVICES; LOSS OF USE, DATA OR PROFITS; OR BUSINESS
                                 
    29                           ; INTERRUPTION) HOWSOEVER CAUSED AND ON ANY THEORY OF LIABILITY, WHETHER IN CONTRACT, ST
                                 RICT
    30                           ; LIABILITY, OR TORT (INCLUDING NEGLIGENCE OR OTHERWISE) ARISING IN ANY WAY OUT OF THE U
                                 SE OF
    31                           ; THIS SOFTWARE, EVEN IF ADVISED OF THE POSSIBILITY OF SUCH DAMAGE.
    32                           ; 
    33                           
    34                           
    35                           ; 
    36                           ; Code-generator required, PIC16F1455 Definitions
    37                           ; 
    38  0008                     fsr0h equ 05h
    39  0005                     fsr0l equ 04h
    40  0004                     fsr1h equ 07h
    41  0007                     fsr1l equ 06h
    42  0006                     indf equ 00h
    43  0000                     indf0 equ 00h
    44  0000                     indf1 equ 01h
    45  0001                     intcon equ 0Bh
    46  000B                     pc equ 02h
    47  0002                     pcl equ 02h
    48  0002                     pclath equ 0Ah
    49  000A                     status equ 03h
    50  0003                     wreg equ 09h
    51  0009                     
     2                           opt pagewidth 120
     3  0000                     byte0	macro	val
     4                           	(getbyte(val,0))
     5                           endm
     6  0000                     byte1	macro	val
     7                           	(getbyte(val,1))
     8                           endm
     9  0000                     byte2	macro	val
    10                           	(getbyte(val,2))
    11                           endm
    12  0000                     byte3	macro	val
    13                           	(getbyte(val,3))
    14                           endm
    15  0000                     byte4	macro	val
    16                           	(getbyte(val,4))
    17                           endm
    18  0000                     byte5	macro	val
    19                           	(getbyte(val,5))
    20                           endm
    21  0000                     byte6	macro	val
    22                           	(getbyte(val,6))
    23                           endm
    24  0000                     byte7	macro	val
    25                           	(getbyte(val,7))
    26                           endm
    27  0000                     getword	macro	val,pos
    28                           	(((val) >> (8 * pos)) and 0xffff)
    29                           endm
    30  0000                     word0	macro	val
    31                           	(getword(val,0))
    32                           endm
    33  0000                     word1	macro	val
    34                           	(getword(val,2))
    35                           endm
    36  0000                     word2	macro	val
    37                           	(getword(val,4))
    38                           endm
    39  0000                     word3	macro	val
    40                           	(getword(val,6))
    41                           endm
    42  0000                     gettword	macro	val,pos
    43                           	(((val) >> (8 * pos)) and 0xffffff)
    44                           endm
    45  0000                     tword0	macro	val
    46                           	(gettword(val,0))
    47                           endm
    48  0000                     tword1	macro	val
    49                           	(gettword(val,3))
    50                           endm
    51  0000                     tword2	macro	val
    52                           	(gettword(val,6))
    53                           endm
    54  0000                     getdword	macro	val,pos
    55                           	(((val) >> (8 * pos)) and 0xffffffff)
    56                           endm
    57  0000                     dword0	macro	val
    58                           	(getdword(val,0))
    59                           endm
    60  0000                     dword1	macro	val
    61                           	(getdword(val,4))
    62                           endm
    63  0000                     clrc	macro
    64                           	bcf	3,0
    65                           	endm
    66  0000                     clrz	macro
    67                           	bcf	3,2
    68                           	endm
    69  0000                     setc	macro
    70                           	bsf	3,0
    71                           	endm
    72  0000                     setz	macro
    73                           	bsf	3,2
    74                           	endm
    75  0000                     skipc	macro
    76                           	btfss	3,0
    77                           	endm
    78  0000                     skipz	macro
    79                           	btfss	3,2
    80                           	endm
    81  0000                     skipnc	macro
    82                           	btfsc	3,0
    83                           	endm
    84  0000                     skipnz	macro
    85                           	btfsc	3,2
    86                           	endm
    87  0000                     pushw	macro
    88                           	movwi fsr1++
    89                           	endm
    90  0000                     popw	macro
    91                           	moviw --fsr1
    92                           	endm
    93  0000                     # 54 "C:\Program Files (x86)\Microchip\xc8\v2.00\pic\include\pic16f1455.h"
    94                           INDF0 equ 00h ;# 
    95  0000                     # 74 "C:\Program Files (x86)\Microchip\xc8\v2.00\pic\include\pic16f1455.h"
    96                           INDF1 equ 01h ;# 
    97  0001                     # 94 "C:\Program Files (x86)\Microchip\xc8\v2.00\pic\include\pic16f1455.h"
    98                           PCL equ 02h ;# 
    99  0002                     # 114 "C:\Program Files (x86)\Microchip\xc8\v2.00\pic\include\pic16f1455.h"
   100                           STATUS equ 03h ;# 
   101  0003                     # 177 "C:\Program Files (x86)\Microchip\xc8\v2.00\pic\include\pic16f1455.h"
   102                           FSR0L equ 04h ;# 
   103  0004                     # 197 "C:\Program Files (x86)\Microchip\xc8\v2.00\pic\include\pic16f1455.h"
   104                           FSR0H equ 05h ;# 
   105  0005                     # 221 "C:\Program Files (x86)\Microchip\xc8\v2.00\pic\include\pic16f1455.h"
   106                           FSR1L equ 06h ;# 
   107  0006                     # 241 "C:\Program Files (x86)\Microchip\xc8\v2.00\pic\include\pic16f1455.h"
   108                           FSR1H equ 07h ;# 
   109  0007                     # 261 "C:\Program Files (x86)\Microchip\xc8\v2.00\pic\include\pic16f1455.h"
   110                           BSR equ 08h ;# 
   111  0008                     # 313 "C:\Program Files (x86)\Microchip\xc8\v2.00\pic\include\pic16f1455.h"
   112                           WREG equ 09h ;# 
   113  0009                     # 333 "C:\Program Files (x86)\Microchip\xc8\v2.00\pic\include\pic16f1455.h"
   114                           PCLATH equ 0Ah ;# 
   115  000A                     # 353 "C:\Program Files (x86)\Microchip\xc8\v2.00\pic\include\pic16f1455.h"
   116                           INTCON equ 0Bh ;# 
   117  000B                     # 431 "C:\Program Files (x86)\Microchip\xc8\v2.00\pic\include\pic16f1455.h"
   118                           PORTA equ 0Ch ;# 
   119  000C                     # 476 "C:\Program Files (x86)\Microchip\xc8\v2.00\pic\include\pic16f1455.h"
   120                           PORTC equ 0Eh ;# 
   121  000E                     # 526 "C:\Program Files (x86)\Microchip\xc8\v2.00\pic\include\pic16f1455.h"
   122                           PIR1 equ 011h ;# 
   123  0011                     # 583 "C:\Program Files (x86)\Microchip\xc8\v2.00\pic\include\pic16f1455.h"
   124                           PIR2 equ 012h ;# 
   125  0012                     # 635 "C:\Program Files (x86)\Microchip\xc8\v2.00\pic\include\pic16f1455.h"
   126                           TMR0 equ 015h ;# 
   127  0015                     # 655 "C:\Program Files (x86)\Microchip\xc8\v2.00\pic\include\pic16f1455.h"
   128                           TMR1 equ 016h ;# 
   129  0016                     # 662 "C:\Program Files (x86)\Microchip\xc8\v2.00\pic\include\pic16f1455.h"
   130                           TMR1L equ 016h ;# 
   131  0016                     # 682 "C:\Program Files (x86)\Microchip\xc8\v2.00\pic\include\pic16f1455.h"
   132                           TMR1H equ 017h ;# 
   133  0017                     # 702 "C:\Program Files (x86)\Microchip\xc8\v2.00\pic\include\pic16f1455.h"
   134                           T1CON equ 018h ;# 
   135  0018                     # 774 "C:\Program Files (x86)\Microchip\xc8\v2.00\pic\include\pic16f1455.h"
   136                           T1GCON equ 019h ;# 
   137  0019                     # 844 "C:\Program Files (x86)\Microchip\xc8\v2.00\pic\include\pic16f1455.h"
   138                           TMR2 equ 01Ah ;# 
   139  001A                     # 864 "C:\Program Files (x86)\Microchip\xc8\v2.00\pic\include\pic16f1455.h"
   140                           PR2 equ 01Bh ;# 
   141  001B                     # 884 "C:\Program Files (x86)\Microchip\xc8\v2.00\pic\include\pic16f1455.h"
   142                           T2CON equ 01Ch ;# 
   143  001C                     # 955 "C:\Program Files (x86)\Microchip\xc8\v2.00\pic\include\pic16f1455.h"
   144                           TRISA equ 08Ch ;# 
   145  008C                     # 982 "C:\Program Files (x86)\Microchip\xc8\v2.00\pic\include\pic16f1455.h"
   146                           TRISC equ 08Eh ;# 
   147  008E                     # 1032 "C:\Program Files (x86)\Microchip\xc8\v2.00\pic\include\pic16f1455.h"
   148                           PIE1 equ 091h ;# 
   149  0091                     # 1089 "C:\Program Files (x86)\Microchip\xc8\v2.00\pic\include\pic16f1455.h"
   150                           PIE2 equ 092h ;# 
   151  0092                     # 1141 "C:\Program Files (x86)\Microchip\xc8\v2.00\pic\include\pic16f1455.h"
   152                           OPTION_REG equ 095h ;# 
   153  0095                     # 1224 "C:\Program Files (x86)\Microchip\xc8\v2.00\pic\include\pic16f1455.h"
   154                           PCON equ 096h ;# 
   155  0096                     # 1281 "C:\Program Files (x86)\Microchip\xc8\v2.00\pic\include\pic16f1455.h"
   156                           WDTCON equ 097h ;# 
   157  0097                     # 1340 "C:\Program Files (x86)\Microchip\xc8\v2.00\pic\include\pic16f1455.h"
   158                           OSCTUNE equ 098h ;# 
   159  0098                     # 1404 "C:\Program Files (x86)\Microchip\xc8\v2.00\pic\include\pic16f1455.h"
   160                           OSCCON equ 099h ;# 
   161  0099                     # 1480 "C:\Program Files (x86)\Microchip\xc8\v2.00\pic\include\pic16f1455.h"
   162                           OSCSTAT equ 09Ah ;# 
   163  009A                     # 1531 "C:\Program Files (x86)\Microchip\xc8\v2.00\pic\include\pic16f1455.h"
   164                           ADRES equ 09Bh ;# 
   165  009B                     # 1538 "C:\Program Files (x86)\Microchip\xc8\v2.00\pic\include\pic16f1455.h"
   166                           ADRESL equ 09Bh ;# 
   167  009B                     # 1558 "C:\Program Files (x86)\Microchip\xc8\v2.00\pic\include\pic16f1455.h"
   168                           ADRESH equ 09Ch ;# 
   169  009C                     # 1578 "C:\Program Files (x86)\Microchip\xc8\v2.00\pic\include\pic16f1455.h"
   170                           ADCON0 equ 09Dh ;# 
   171  009D                     # 1658 "C:\Program Files (x86)\Microchip\xc8\v2.00\pic\include\pic16f1455.h"
   172                           ADCON1 equ 09Eh ;# 
   173  009E                     # 1724 "C:\Program Files (x86)\Microchip\xc8\v2.00\pic\include\pic16f1455.h"
   174                           ADCON2 equ 09Fh ;# 
   175  009F                     # 1766 "C:\Program Files (x86)\Microchip\xc8\v2.00\pic\include\pic16f1455.h"
   176                           LATA equ 010Ch ;# 
   177  010C                     # 1793 "C:\Program Files (x86)\Microchip\xc8\v2.00\pic\include\pic16f1455.h"
   178                           LATC equ 010Eh ;# 
   179  010E                     # 1843 "C:\Program Files (x86)\Microchip\xc8\v2.00\pic\include\pic16f1455.h"
   180                           CM1CON0 equ 0111h ;# 
   181  0111                     # 1900 "C:\Program Files (x86)\Microchip\xc8\v2.00\pic\include\pic16f1455.h"
   182                           CM1CON1 equ 0112h ;# 
   183  0112                     # 1972 "C:\Program Files (x86)\Microchip\xc8\v2.00\pic\include\pic16f1455.h"
   184                           CM2CON0 equ 0113h ;# 
   185  0113                     # 2029 "C:\Program Files (x86)\Microchip\xc8\v2.00\pic\include\pic16f1455.h"
   186                           CM2CON1 equ 0114h ;# 
   187  0114                     # 2101 "C:\Program Files (x86)\Microchip\xc8\v2.00\pic\include\pic16f1455.h"
   188                           CMOUT equ 0115h ;# 
   189  0115                     # 2127 "C:\Program Files (x86)\Microchip\xc8\v2.00\pic\include\pic16f1455.h"
   190                           BORCON equ 0116h ;# 
   191  0116                     # 2160 "C:\Program Files (x86)\Microchip\xc8\v2.00\pic\include\pic16f1455.h"
   192                           FVRCON equ 0117h ;# 
   193  0117                     # 2236 "C:\Program Files (x86)\Microchip\xc8\v2.00\pic\include\pic16f1455.h"
   194                           DACCON0 equ 0118h ;# 
   195  0118                     # 2291 "C:\Program Files (x86)\Microchip\xc8\v2.00\pic\include\pic16f1455.h"
   196                           DACCON1 equ 0119h ;# 
   197  0119                     # 2343 "C:\Program Files (x86)\Microchip\xc8\v2.00\pic\include\pic16f1455.h"
   198                           APFCON equ 011Dh ;# 
   199  011D                     # 2389 "C:\Program Files (x86)\Microchip\xc8\v2.00\pic\include\pic16f1455.h"
   200                           ANSELA equ 018Ch ;# 
   201  018C                     # 2418 "C:\Program Files (x86)\Microchip\xc8\v2.00\pic\include\pic16f1455.h"
   202                           ANSELC equ 018Eh ;# 
   203  018E                     # 2464 "C:\Program Files (x86)\Microchip\xc8\v2.00\pic\include\pic16f1455.h"
   204                           PMADR equ 0191h ;# 
   205  0191                     # 2471 "C:\Program Files (x86)\Microchip\xc8\v2.00\pic\include\pic16f1455.h"
   206                           PMADRL equ 0191h ;# 
   207  0191                     # 2491 "C:\Program Files (x86)\Microchip\xc8\v2.00\pic\include\pic16f1455.h"
   208                           PMADRH equ 0192h ;# 
   209  0192                     # 2511 "C:\Program Files (x86)\Microchip\xc8\v2.00\pic\include\pic16f1455.h"
   210                           PMDAT equ 0193h ;# 
   211  0193                     # 2518 "C:\Program Files (x86)\Microchip\xc8\v2.00\pic\include\pic16f1455.h"
   212                           PMDATL equ 0193h ;# 
   213  0193                     # 2538 "C:\Program Files (x86)\Microchip\xc8\v2.00\pic\include\pic16f1455.h"
   214                           PMDATH equ 0194h ;# 
   215  0194                     # 2558 "C:\Program Files (x86)\Microchip\xc8\v2.00\pic\include\pic16f1455.h"
   216                           PMCON1 equ 0195h ;# 
   217  0195                     # 2614 "C:\Program Files (x86)\Microchip\xc8\v2.00\pic\include\pic16f1455.h"
   218                           PMCON2 equ 0196h ;# 
   219  0196                     # 2634 "C:\Program Files (x86)\Microchip\xc8\v2.00\pic\include\pic16f1455.h"
   220                           VREGCON equ 0197h ;# 
   221  0197                     # 2668 "C:\Program Files (x86)\Microchip\xc8\v2.00\pic\include\pic16f1455.h"
   222                           RCREG equ 0199h ;# 
   223  0199                     # 2688 "C:\Program Files (x86)\Microchip\xc8\v2.00\pic\include\pic16f1455.h"
   224                           TXREG equ 019Ah ;# 
   225  019A                     # 2708 "C:\Program Files (x86)\Microchip\xc8\v2.00\pic\include\pic16f1455.h"
   226                           SPBRG equ 019Bh ;# 
   227  019B                     # 2715 "C:\Program Files (x86)\Microchip\xc8\v2.00\pic\include\pic16f1455.h"
   228                           SPBRGL equ 019Bh ;# 
   229  019B                     # 2735 "C:\Program Files (x86)\Microchip\xc8\v2.00\pic\include\pic16f1455.h"
   230                           SPBRGH equ 019Ch ;# 
   231  019C                     # 2755 "C:\Program Files (x86)\Microchip\xc8\v2.00\pic\include\pic16f1455.h"
   232                           RCSTA equ 019Dh ;# 
   233  019D                     # 2817 "C:\Program Files (x86)\Microchip\xc8\v2.00\pic\include\pic16f1455.h"
   234                           TXSTA equ 019Eh ;# 
   235  019E                     # 2879 "C:\Program Files (x86)\Microchip\xc8\v2.00\pic\include\pic16f1455.h"
   236                           BAUDCON equ 019Fh ;# 
   237  019F                     # 2931 "C:\Program Files (x86)\Microchip\xc8\v2.00\pic\include\pic16f1455.h"
   238                           WPUA equ 020Ch ;# 
   239  020C                     # 2972 "C:\Program Files (x86)\Microchip\xc8\v2.00\pic\include\pic16f1455.h"
   240                           SSP1BUF equ 0211h ;# 
   241  0211                     # 2977 "C:\Program Files (x86)\Microchip\xc8\v2.00\pic\include\pic16f1455.h"
   242                           SSPBUF equ 0211h ;# 
   243  0211                     # 3010 "C:\Program Files (x86)\Microchip\xc8\v2.00\pic\include\pic16f1455.h"
   244                           SSP1ADD equ 0212h ;# 
   245  0212                     # 3015 "C:\Program Files (x86)\Microchip\xc8\v2.00\pic\include\pic16f1455.h"
   246                           SSPADD equ 0212h ;# 
   247  0212                     # 3048 "C:\Program Files (x86)\Microchip\xc8\v2.00\pic\include\pic16f1455.h"
   248                           SSP1MSK equ 0213h ;# 
   249  0213                     # 3053 "C:\Program Files (x86)\Microchip\xc8\v2.00\pic\include\pic16f1455.h"
   250                           SSPMSK equ 0213h ;# 
   251  0213                     # 3086 "C:\Program Files (x86)\Microchip\xc8\v2.00\pic\include\pic16f1455.h"
   252                           SSP1STAT equ 0214h ;# 
   253  0214                     # 3091 "C:\Program Files (x86)\Microchip\xc8\v2.00\pic\include\pic16f1455.h"
   254                           SSPSTAT equ 0214h ;# 
   255  0214                     # 3208 "C:\Program Files (x86)\Microchip\xc8\v2.00\pic\include\pic16f1455.h"
   256                           SSP1CON1 equ 0215h ;# 
   257  0215                     # 3213 "C:\Program Files (x86)\Microchip\xc8\v2.00\pic\include\pic16f1455.h"
   258                           SSPCON equ 0215h ;# 
   259  0215                     # 3217 "C:\Program Files (x86)\Microchip\xc8\v2.00\pic\include\pic16f1455.h"
   260                           SSPCON1 equ 0215h ;# 
   261  0215                     # 3451 "C:\Program Files (x86)\Microchip\xc8\v2.00\pic\include\pic16f1455.h"
   262                           SSP1CON2 equ 0216h ;# 
   263  0216                     # 3456 "C:\Program Files (x86)\Microchip\xc8\v2.00\pic\include\pic16f1455.h"
   264                           SSPCON2 equ 0216h ;# 
   265  0216                     # 3573 "C:\Program Files (x86)\Microchip\xc8\v2.00\pic\include\pic16f1455.h"
   266                           SSP1CON3 equ 0217h ;# 
   267  0217                     # 3578 "C:\Program Files (x86)\Microchip\xc8\v2.00\pic\include\pic16f1455.h"
   268                           SSPCON3 equ 0217h ;# 
   269  0217                     # 3695 "C:\Program Files (x86)\Microchip\xc8\v2.00\pic\include\pic16f1455.h"
   270                           IOCAP equ 0391h ;# 
   271  0391                     # 3748 "C:\Program Files (x86)\Microchip\xc8\v2.00\pic\include\pic16f1455.h"
   272                           IOCAN equ 0392h ;# 
   273  0392                     # 3801 "C:\Program Files (x86)\Microchip\xc8\v2.00\pic\include\pic16f1455.h"
   274                           IOCAF equ 0393h ;# 
   275  0393                     # 3854 "C:\Program Files (x86)\Microchip\xc8\v2.00\pic\include\pic16f1455.h"
   276                           CLKRCON equ 039Ah ;# 
   277  039A                     # 3930 "C:\Program Files (x86)\Microchip\xc8\v2.00\pic\include\pic16f1455.h"
   278                           ACTCON equ 039Bh ;# 
   279  039B                     # 3977 "C:\Program Files (x86)\Microchip\xc8\v2.00\pic\include\pic16f1455.h"
   280                           PWM1DCL equ 0611h ;# 
   281  0611                     # 4013 "C:\Program Files (x86)\Microchip\xc8\v2.00\pic\include\pic16f1455.h"
   282                           PWM1DCH equ 0612h ;# 
   283  0612                     # 4083 "C:\Program Files (x86)\Microchip\xc8\v2.00\pic\include\pic16f1455.h"
   284                           PWM1CON equ 0613h ;# 
   285  0613                     # 4088 "C:\Program Files (x86)\Microchip\xc8\v2.00\pic\include\pic16f1455.h"
   286                           PWM1CON0 equ 0613h ;# 
   287  0613                     # 4159 "C:\Program Files (x86)\Microchip\xc8\v2.00\pic\include\pic16f1455.h"
   288                           PWM2DCL equ 0614h ;# 
   289  0614                     # 4195 "C:\Program Files (x86)\Microchip\xc8\v2.00\pic\include\pic16f1455.h"
   290                           PWM2DCH equ 0615h ;# 
   291  0615                     # 4265 "C:\Program Files (x86)\Microchip\xc8\v2.00\pic\include\pic16f1455.h"
   292                           PWM2CON equ 0616h ;# 
   293  0616                     # 4270 "C:\Program Files (x86)\Microchip\xc8\v2.00\pic\include\pic16f1455.h"
   294                           PWM2CON0 equ 0616h ;# 
   295  0616                     # 4341 "C:\Program Files (x86)\Microchip\xc8\v2.00\pic\include\pic16f1455.h"
   296                           CWG1DBR equ 0691h ;# 
   297  0691                     # 4399 "C:\Program Files (x86)\Microchip\xc8\v2.00\pic\include\pic16f1455.h"
   298                           CWG1DBF equ 0692h ;# 
   299  0692                     # 4457 "C:\Program Files (x86)\Microchip\xc8\v2.00\pic\include\pic16f1455.h"
   300                           CWG1CON0 equ 0693h ;# 
   301  0693                     # 4516 "C:\Program Files (x86)\Microchip\xc8\v2.00\pic\include\pic16f1455.h"
   302                           CWG1CON1 equ 0694h ;# 
   303  0694                     # 4587 "C:\Program Files (x86)\Microchip\xc8\v2.00\pic\include\pic16f1455.h"
   304                           CWG1CON2 equ 0695h ;# 
   305  0695                     # 4633 "C:\Program Files (x86)\Microchip\xc8\v2.00\pic\include\pic16f1455.h"
   306                           UCON equ 0E8Eh ;# 
   307  0E8E                     # 4684 "C:\Program Files (x86)\Microchip\xc8\v2.00\pic\include\pic16f1455.h"
   308                           USTAT equ 0E8Fh ;# 
   309  0E8F                     # 4744 "C:\Program Files (x86)\Microchip\xc8\v2.00\pic\include\pic16f1455.h"
   310                           UIR equ 0E90h ;# 
   311  0E90                     # 4800 "C:\Program Files (x86)\Microchip\xc8\v2.00\pic\include\pic16f1455.h"
   312                           UCFG equ 0E91h ;# 
   313  0E91                     # 4854 "C:\Program Files (x86)\Microchip\xc8\v2.00\pic\include\pic16f1455.h"
   314                           UIE equ 0E92h ;# 
   315  0E92                     # 4910 "C:\Program Files (x86)\Microchip\xc8\v2.00\pic\include\pic16f1455.h"
   316                           UEIR equ 0E93h ;# 
   317  0E93                     # 4961 "C:\Program Files (x86)\Microchip\xc8\v2.00\pic\include\pic16f1455.h"
   318                           UFRM equ 0E94h ;# 
   319  0E94                     # 4968 "C:\Program Files (x86)\Microchip\xc8\v2.00\pic\include\pic16f1455.h"
   320                           UFRMH equ 0E94h ;# 
   321  0E94                     # 5000 "C:\Program Files (x86)\Microchip\xc8\v2.00\pic\include\pic16f1455.h"
   322                           UFRML equ 0E95h ;# 
   323  0E95                     # 5062 "C:\Program Files (x86)\Microchip\xc8\v2.00\pic\include\pic16f1455.h"
   324                           UADDR equ 0E96h ;# 
   325  0E96                     # 5118 "C:\Program Files (x86)\Microchip\xc8\v2.00\pic\include\pic16f1455.h"
   326                           UEIE equ 0E97h ;# 
   327  0E97                     # 5169 "C:\Program Files (x86)\Microchip\xc8\v2.00\pic\include\pic16f1455.h"
   328                           UEP0 equ 0E98h ;# 
   329  0E98                     # 5213 "C:\Program Files (x86)\Microchip\xc8\v2.00\pic\include\pic16f1455.h"
   330                           UEP1 equ 0E99h ;# 
   331  0E99                     # 5257 "C:\Program Files (x86)\Microchip\xc8\v2.00\pic\include\pic16f1455.h"
   332                           UEP2 equ 0E9Ah ;# 
   333  0E9A                     # 5301 "C:\Program Files (x86)\Microchip\xc8\v2.00\pic\include\pic16f1455.h"
   334                           UEP3 equ 0E9Bh ;# 
   335  0E9B                     # 5345 "C:\Program Files (x86)\Microchip\xc8\v2.00\pic\include\pic16f1455.h"
   336                           UEP4 equ 0E9Ch ;# 
   337  0E9C                     # 5389 "C:\Program Files (x86)\Microchip\xc8\v2.00\pic\include\pic16f1455.h"
   338                           UEP5 equ 0E9Dh ;# 
   339  0E9D                     # 5433 "C:\Program Files (x86)\Microchip\xc8\v2.00\pic\include\pic16f1455.h"
   340                           UEP6 equ 0E9Eh ;# 
   341  0E9E                     # 5477 "C:\Program Files (x86)\Microchip\xc8\v2.00\pic\include\pic16f1455.h"
   342                           UEP7 equ 0E9Fh ;# 
   343  0E9F                     # 5521 "C:\Program Files (x86)\Microchip\xc8\v2.00\pic\include\pic16f1455.h"
   344                           STATUS_SHAD equ 0FE4h ;# 
   345  0FE4                     # 5553 "C:\Program Files (x86)\Microchip\xc8\v2.00\pic\include\pic16f1455.h"
   346                           WREG_SHAD equ 0FE5h ;# 
   347  0FE5                     # 5573 "C:\Program Files (x86)\Microchip\xc8\v2.00\pic\include\pic16f1455.h"
   348                           BSR_SHAD equ 0FE6h ;# 
   349  0FE6                     # 5593 "C:\Program Files (x86)\Microchip\xc8\v2.00\pic\include\pic16f1455.h"
   350                           PCLATH_SHAD equ 0FE7h ;# 
   351  0FE7                     # 5613 "C:\Program Files (x86)\Microchip\xc8\v2.00\pic\include\pic16f1455.h"
   352                           FSR0L_SHAD equ 0FE8h ;# 
   353  0FE8                     # 5633 "C:\Program Files (x86)\Microchip\xc8\v2.00\pic\include\pic16f1455.h"
   354                           FSR0H_SHAD equ 0FE9h ;# 
   355  0FE9                     # 5653 "C:\Program Files (x86)\Microchip\xc8\v2.00\pic\include\pic16f1455.h"
   356                           FSR1L_SHAD equ 0FEAh ;# 
   357  0FEA                     # 5673 "C:\Program Files (x86)\Microchip\xc8\v2.00\pic\include\pic16f1455.h"
   358                           FSR1H_SHAD equ 0FEBh ;# 
   359  0FEB                     # 5693 "C:\Program Files (x86)\Microchip\xc8\v2.00\pic\include\pic16f1455.h"
   360                           STKPTR equ 0FEDh ;# 
   361  0FED                     # 5713 "C:\Program Files (x86)\Microchip\xc8\v2.00\pic\include\pic16f1455.h"
   362                           TOSL equ 0FEEh ;# 
   363  0FEE                     # 5733 "C:\Program Files (x86)\Microchip\xc8\v2.00\pic\include\pic16f1455.h"
   364                           TOSH equ 0FEFh ;# 
   365  0FEF                     # 54 "C:\Program Files (x86)\Microchip\xc8\v2.00\pic\include\pic16f1455.h"
   366                           INDF0 equ 00h ;# 
   367  0000                     # 74 "C:\Program Files (x86)\Microchip\xc8\v2.00\pic\include\pic16f1455.h"
   368                           INDF1 equ 01h ;# 
   369  0001                     # 94 "C:\Program Files (x86)\Microchip\xc8\v2.00\pic\include\pic16f1455.h"
   370                           PCL equ 02h ;# 
   371  0002                     # 114 "C:\Program Files (x86)\Microchip\xc8\v2.00\pic\include\pic16f1455.h"
   372                           STATUS equ 03h ;# 
   373  0003                     # 177 "C:\Program Files (x86)\Microchip\xc8\v2.00\pic\include\pic16f1455.h"
   374                           FSR0L equ 04h ;# 
   375  0004                     # 197 "C:\Program Files (x86)\Microchip\xc8\v2.00\pic\include\pic16f1455.h"
   376                           FSR0H equ 05h ;# 
   377  0005                     # 221 "C:\Program Files (x86)\Microchip\xc8\v2.00\pic\include\pic16f1455.h"
   378                           FSR1L equ 06h ;# 
   379  0006                     # 241 "C:\Program Files (x86)\Microchip\xc8\v2.00\pic\include\pic16f1455.h"
   380                           FSR1H equ 07h ;# 
   381  0007                     # 261 "C:\Program Files (x86)\Microchip\xc8\v2.00\pic\include\pic16f1455.h"
   382                           BSR equ 08h ;# 
   383  0008                     # 313 "C:\Program Files (x86)\Microchip\xc8\v2.00\pic\include\pic16f1455.h"
   384                           WREG equ 09h ;# 
   385  0009                     # 333 "C:\Program Files (x86)\Microchip\xc8\v2.00\pic\include\pic16f1455.h"
   386                           PCLATH equ 0Ah ;# 
   387  000A                     # 353 "C:\Program Files (x86)\Microchip\xc8\v2.00\pic\include\pic16f1455.h"
   388                           INTCON equ 0Bh ;# 
   389  000B                     # 431 "C:\Program Files (x86)\Microchip\xc8\v2.00\pic\include\pic16f1455.h"
   390                           PORTA equ 0Ch ;# 
   391  000C                     # 476 "C:\Program Files (x86)\Microchip\xc8\v2.00\pic\include\pic16f1455.h"
   392                           PORTC equ 0Eh ;# 
   393  000E                     # 526 "C:\Program Files (x86)\Microchip\xc8\v2.00\pic\include\pic16f1455.h"
   394                           PIR1 equ 011h ;# 
   395  0011                     # 583 "C:\Program Files (x86)\Microchip\xc8\v2.00\pic\include\pic16f1455.h"
   396                           PIR2 equ 012h ;# 
   397  0012                     # 635 "C:\Program Files (x86)\Microchip\xc8\v2.00\pic\include\pic16f1455.h"
   398                           TMR0 equ 015h ;# 
   399  0015                     # 655 "C:\Program Files (x86)\Microchip\xc8\v2.00\pic\include\pic16f1455.h"
   400                           TMR1 equ 016h ;# 
   401  0016                     # 662 "C:\Program Files (x86)\Microchip\xc8\v2.00\pic\include\pic16f1455.h"
   402                           TMR1L equ 016h ;# 
   403  0016                     # 682 "C:\Program Files (x86)\Microchip\xc8\v2.00\pic\include\pic16f1455.h"
   404                           TMR1H equ 017h ;# 
   405  0017                     # 702 "C:\Program Files (x86)\Microchip\xc8\v2.00\pic\include\pic16f1455.h"
   406                           T1CON equ 018h ;# 
   407  0018                     # 774 "C:\Program Files (x86)\Microchip\xc8\v2.00\pic\include\pic16f1455.h"
   408                           T1GCON equ 019h ;# 
   409  0019                     # 844 "C:\Program Files (x86)\Microchip\xc8\v2.00\pic\include\pic16f1455.h"
   410                           TMR2 equ 01Ah ;# 
   411  001A                     # 864 "C:\Program Files (x86)\Microchip\xc8\v2.00\pic\include\pic16f1455.h"
   412                           PR2 equ 01Bh ;# 
   413  001B                     # 884 "C:\Program Files (x86)\Microchip\xc8\v2.00\pic\include\pic16f1455.h"
   414                           T2CON equ 01Ch ;# 
   415  001C                     # 955 "C:\Program Files (x86)\Microchip\xc8\v2.00\pic\include\pic16f1455.h"
   416                           TRISA equ 08Ch ;# 
   417  008C                     # 982 "C:\Program Files (x86)\Microchip\xc8\v2.00\pic\include\pic16f1455.h"
   418                           TRISC equ 08Eh ;# 
   419  008E                     # 1032 "C:\Program Files (x86)\Microchip\xc8\v2.00\pic\include\pic16f1455.h"
   420                           PIE1 equ 091h ;# 
   421  0091                     # 1089 "C:\Program Files (x86)\Microchip\xc8\v2.00\pic\include\pic16f1455.h"
   422                           PIE2 equ 092h ;# 
   423  0092                     # 1141 "C:\Program Files (x86)\Microchip\xc8\v2.00\pic\include\pic16f1455.h"
   424                           OPTION_REG equ 095h ;# 
   425  0095                     # 1224 "C:\Program Files (x86)\Microchip\xc8\v2.00\pic\include\pic16f1455.h"
   426                           PCON equ 096h ;# 
   427  0096                     # 1281 "C:\Program Files (x86)\Microchip\xc8\v2.00\pic\include\pic16f1455.h"
   428                           WDTCON equ 097h ;# 
   429  0097                     # 1340 "C:\Program Files (x86)\Microchip\xc8\v2.00\pic\include\pic16f1455.h"
   430                           OSCTUNE equ 098h ;# 
   431  0098                     # 1404 "C:\Program Files (x86)\Microchip\xc8\v2.00\pic\include\pic16f1455.h"
   432                           OSCCON equ 099h ;# 
   433  0099                     # 1480 "C:\Program Files (x86)\Microchip\xc8\v2.00\pic\include\pic16f1455.h"
   434                           OSCSTAT equ 09Ah ;# 
   435  009A                     # 1531 "C:\Program Files (x86)\Microchip\xc8\v2.00\pic\include\pic16f1455.h"
   436                           ADRES equ 09Bh ;# 
   437  009B                     # 1538 "C:\Program Files (x86)\Microchip\xc8\v2.00\pic\include\pic16f1455.h"
   438                           ADRESL equ 09Bh ;# 
   439  009B                     # 1558 "C:\Program Files (x86)\Microchip\xc8\v2.00\pic\include\pic16f1455.h"
   440                           ADRESH equ 09Ch ;# 
   441  009C                     # 1578 "C:\Program Files (x86)\Microchip\xc8\v2.00\pic\include\pic16f1455.h"
   442                           ADCON0 equ 09Dh ;# 
   443  009D                     # 1658 "C:\Program Files (x86)\Microchip\xc8\v2.00\pic\include\pic16f1455.h"
   444                           ADCON1 equ 09Eh ;# 
   445  009E                     # 1724 "C:\Program Files (x86)\Microchip\xc8\v2.00\pic\include\pic16f1455.h"
   446                           ADCON2 equ 09Fh ;# 
   447  009F                     # 1766 "C:\Program Files (x86)\Microchip\xc8\v2.00\pic\include\pic16f1455.h"
   448                           LATA equ 010Ch ;# 
   449  010C                     # 1793 "C:\Program Files (x86)\Microchip\xc8\v2.00\pic\include\pic16f1455.h"
   450                           LATC equ 010Eh ;# 
   451  010E                     # 1843 "C:\Program Files (x86)\Microchip\xc8\v2.00\pic\include\pic16f1455.h"
   452                           CM1CON0 equ 0111h ;# 
   453  0111                     # 1900 "C:\Program Files (x86)\Microchip\xc8\v2.00\pic\include\pic16f1455.h"
   454                           CM1CON1 equ 0112h ;# 
   455  0112                     # 1972 "C:\Program Files (x86)\Microchip\xc8\v2.00\pic\include\pic16f1455.h"
   456                           CM2CON0 equ 0113h ;# 
   457  0113                     # 2029 "C:\Program Files (x86)\Microchip\xc8\v2.00\pic\include\pic16f1455.h"
   458                           CM2CON1 equ 0114h ;# 
   459  0114                     # 2101 "C:\Program Files (x86)\Microchip\xc8\v2.00\pic\include\pic16f1455.h"
   460                           CMOUT equ 0115h ;# 
   461  0115                     # 2127 "C:\Program Files (x86)\Microchip\xc8\v2.00\pic\include\pic16f1455.h"
   462                           BORCON equ 0116h ;# 
   463  0116                     # 2160 "C:\Program Files (x86)\Microchip\xc8\v2.00\pic\include\pic16f1455.h"
   464                           FVRCON equ 0117h ;# 
   465  0117                     # 2236 "C:\Program Files (x86)\Microchip\xc8\v2.00\pic\include\pic16f1455.h"
   466                           DACCON0 equ 0118h ;# 
   467  0118                     # 2291 "C:\Program Files (x86)\Microchip\xc8\v2.00\pic\include\pic16f1455.h"
   468                           DACCON1 equ 0119h ;# 
   469  0119                     # 2343 "C:\Program Files (x86)\Microchip\xc8\v2.00\pic\include\pic16f1455.h"
   470                           APFCON equ 011Dh ;# 
   471  011D                     # 2389 "C:\Program Files (x86)\Microchip\xc8\v2.00\pic\include\pic16f1455.h"
   472                           ANSELA equ 018Ch ;# 
   473  018C                     # 2418 "C:\Program Files (x86)\Microchip\xc8\v2.00\pic\include\pic16f1455.h"
   474                           ANSELC equ 018Eh ;# 
   475  018E                     # 2464 "C:\Program Files (x86)\Microchip\xc8\v2.00\pic\include\pic16f1455.h"
   476                           PMADR equ 0191h ;# 
   477  0191                     # 2471 "C:\Program Files (x86)\Microchip\xc8\v2.00\pic\include\pic16f1455.h"
   478                           PMADRL equ 0191h ;# 
   479  0191                     # 2491 "C:\Program Files (x86)\Microchip\xc8\v2.00\pic\include\pic16f1455.h"
   480                           PMADRH equ 0192h ;# 
   481  0192                     # 2511 "C:\Program Files (x86)\Microchip\xc8\v2.00\pic\include\pic16f1455.h"
   482                           PMDAT equ 0193h ;# 
   483  0193                     # 2518 "C:\Program Files (x86)\Microchip\xc8\v2.00\pic\include\pic16f1455.h"
   484                           PMDATL equ 0193h ;# 
   485  0193                     # 2538 "C:\Program Files (x86)\Microchip\xc8\v2.00\pic\include\pic16f1455.h"
   486                           PMDATH equ 0194h ;# 
   487  0194                     # 2558 "C:\Program Files (x86)\Microchip\xc8\v2.00\pic\include\pic16f1455.h"
   488                           PMCON1 equ 0195h ;# 
   489  0195                     # 2614 "C:\Program Files (x86)\Microchip\xc8\v2.00\pic\include\pic16f1455.h"
   490                           PMCON2 equ 0196h ;# 
   491  0196                     # 2634 "C:\Program Files (x86)\Microchip\xc8\v2.00\pic\include\pic16f1455.h"
   492                           VREGCON equ 0197h ;# 
   493  0197                     # 2668 "C:\Program Files (x86)\Microchip\xc8\v2.00\pic\include\pic16f1455.h"
   494                           RCREG equ 0199h ;# 
   495  0199                     # 2688 "C:\Program Files (x86)\Microchip\xc8\v2.00\pic\include\pic16f1455.h"
   496                           TXREG equ 019Ah ;# 
   497  019A                     # 2708 "C:\Program Files (x86)\Microchip\xc8\v2.00\pic\include\pic16f1455.h"
   498                           SPBRG equ 019Bh ;# 
   499  019B                     # 2715 "C:\Program Files (x86)\Microchip\xc8\v2.00\pic\include\pic16f1455.h"
   500                           SPBRGL equ 019Bh ;# 
   501  019B                     # 2735 "C:\Program Files (x86)\Microchip\xc8\v2.00\pic\include\pic16f1455.h"
   502                           SPBRGH equ 019Ch ;# 
   503  019C                     # 2755 "C:\Program Files (x86)\Microchip\xc8\v2.00\pic\include\pic16f1455.h"
   504                           RCSTA equ 019Dh ;# 
   505  019D                     # 2817 "C:\Program Files (x86)\Microchip\xc8\v2.00\pic\include\pic16f1455.h"
   506                           TXSTA equ 019Eh ;# 
   507  019E                     # 2879 "C:\Program Files (x86)\Microchip\xc8\v2.00\pic\include\pic16f1455.h"
   508                           BAUDCON equ 019Fh ;# 
   509  019F                     # 2931 "C:\Program Files (x86)\Microchip\xc8\v2.00\pic\include\pic16f1455.h"
   510                           WPUA equ 020Ch ;# 
   511  020C                     # 2972 "C:\Program Files (x86)\Microchip\xc8\v2.00\pic\include\pic16f1455.h"
   512                           SSP1BUF equ 0211h ;# 
   513  0211                     # 2977 "C:\Program Files (x86)\Microchip\xc8\v2.00\pic\include\pic16f1455.h"
   514                           SSPBUF equ 0211h ;# 
   515  0211                     # 3010 "C:\Program Files (x86)\Microchip\xc8\v2.00\pic\include\pic16f1455.h"
   516                           SSP1ADD equ 0212h ;# 
   517  0212                     # 3015 "C:\Program Files (x86)\Microchip\xc8\v2.00\pic\include\pic16f1455.h"
   518                           SSPADD equ 0212h ;# 
   519  0212                     # 3048 "C:\Program Files (x86)\Microchip\xc8\v2.00\pic\include\pic16f1455.h"
   520                           SSP1MSK equ 0213h ;# 
   521  0213                     # 3053 "C:\Program Files (x86)\Microchip\xc8\v2.00\pic\include\pic16f1455.h"
   522                           SSPMSK equ 0213h ;# 
   523  0213                     # 3086 "C:\Program Files (x86)\Microchip\xc8\v2.00\pic\include\pic16f1455.h"
   524                           SSP1STAT equ 0214h ;# 
   525  0214                     # 3091 "C:\Program Files (x86)\Microchip\xc8\v2.00\pic\include\pic16f1455.h"
   526                           SSPSTAT equ 0214h ;# 
   527  0214                     # 3208 "C:\Program Files (x86)\Microchip\xc8\v2.00\pic\include\pic16f1455.h"
   528                           SSP1CON1 equ 0215h ;# 
   529  0215                     # 3213 "C:\Program Files (x86)\Microchip\xc8\v2.00\pic\include\pic16f1455.h"
   530                           SSPCON equ 0215h ;# 
   531  0215                     # 3217 "C:\Program Files (x86)\Microchip\xc8\v2.00\pic\include\pic16f1455.h"
   532                           SSPCON1 equ 0215h ;# 
   533  0215                     # 3451 "C:\Program Files (x86)\Microchip\xc8\v2.00\pic\include\pic16f1455.h"
   534                           SSP1CON2 equ 0216h ;# 
   535  0216                     # 3456 "C:\Program Files (x86)\Microchip\xc8\v2.00\pic\include\pic16f1455.h"
   536                           SSPCON2 equ 0216h ;# 
   537  0216                     # 3573 "C:\Program Files (x86)\Microchip\xc8\v2.00\pic\include\pic16f1455.h"
   538                           SSP1CON3 equ 0217h ;# 
   539  0217                     # 3578 "C:\Program Files (x86)\Microchip\xc8\v2.00\pic\include\pic16f1455.h"
   540                           SSPCON3 equ 0217h ;# 
   541  0217                     # 3695 "C:\Program Files (x86)\Microchip\xc8\v2.00\pic\include\pic16f1455.h"
   542                           IOCAP equ 0391h ;# 
   543  0391                     # 3748 "C:\Program Files (x86)\Microchip\xc8\v2.00\pic\include\pic16f1455.h"
   544                           IOCAN equ 0392h ;# 
   545  0392                     # 3801 "C:\Program Files (x86)\Microchip\xc8\v2.00\pic\include\pic16f1455.h"
   546                           IOCAF equ 0393h ;# 
   547  0393                     # 3854 "C:\Program Files (x86)\Microchip\xc8\v2.00\pic\include\pic16f1455.h"
   548                           CLKRCON equ 039Ah ;# 
   549  039A                     # 3930 "C:\Program Files (x86)\Microchip\xc8\v2.00\pic\include\pic16f1455.h"
   550                           ACTCON equ 039Bh ;# 
   551  039B                     # 3977 "C:\Program Files (x86)\Microchip\xc8\v2.00\pic\include\pic16f1455.h"
   552                           PWM1DCL equ 0611h ;# 
   553  0611                     # 4013 "C:\Program Files (x86)\Microchip\xc8\v2.00\pic\include\pic16f1455.h"
   554                           PWM1DCH equ 0612h ;# 
   555  0612                     # 4083 "C:\Program Files (x86)\Microchip\xc8\v2.00\pic\include\pic16f1455.h"
   556                           PWM1CON equ 0613h ;# 
   557  0613                     # 4088 "C:\Program Files (x86)\Microchip\xc8\v2.00\pic\include\pic16f1455.h"
   558                           PWM1CON0 equ 0613h ;# 
   559  0613                     # 4159 "C:\Program Files (x86)\Microchip\xc8\v2.00\pic\include\pic16f1455.h"
   560                           PWM2DCL equ 0614h ;# 
   561  0614                     # 4195 "C:\Program Files (x86)\Microchip\xc8\v2.00\pic\include\pic16f1455.h"
   562                           PWM2DCH equ 0615h ;# 
   563  0615                     # 4265 "C:\Program Files (x86)\Microchip\xc8\v2.00\pic\include\pic16f1455.h"
   564                           PWM2CON equ 0616h ;# 
   565  0616                     # 4270 "C:\Program Files (x86)\Microchip\xc8\v2.00\pic\include\pic16f1455.h"
   566                           PWM2CON0 equ 0616h ;# 
   567  0616                     # 4341 "C:\Program Files (x86)\Microchip\xc8\v2.00\pic\include\pic16f1455.h"
   568                           CWG1DBR equ 0691h ;# 
   569  0691                     # 4399 "C:\Program Files (x86)\Microchip\xc8\v2.00\pic\include\pic16f1455.h"
   570                           CWG1DBF equ 0692h ;# 
   571  0692                     # 4457 "C:\Program Files (x86)\Microchip\xc8\v2.00\pic\include\pic16f1455.h"
   572                           CWG1CON0 equ 0693h ;# 
   573  0693                     # 4516 "C:\Program Files (x86)\Microchip\xc8\v2.00\pic\include\pic16f1455.h"
   574                           CWG1CON1 equ 0694h ;# 
   575  0694                     # 4587 "C:\Program Files (x86)\Microchip\xc8\v2.00\pic\include\pic16f1455.h"
   576                           CWG1CON2 equ 0695h ;# 
   577  0695                     # 4633 "C:\Program Files (x86)\Microchip\xc8\v2.00\pic\include\pic16f1455.h"
   578                           UCON equ 0E8Eh ;# 
   579  0E8E                     # 4684 "C:\Program Files (x86)\Microchip\xc8\v2.00\pic\include\pic16f1455.h"
   580                           USTAT equ 0E8Fh ;# 
   581  0E8F                     # 4744 "C:\Program Files (x86)\Microchip\xc8\v2.00\pic\include\pic16f1455.h"
   582                           UIR equ 0E90h ;# 
   583  0E90                     # 4800 "C:\Program Files (x86)\Microchip\xc8\v2.00\pic\include\pic16f1455.h"
   584                           UCFG equ 0E91h ;# 
   585  0E91                     # 4854 "C:\Program Files (x86)\Microchip\xc8\v2.00\pic\include\pic16f1455.h"
   586                           UIE equ 0E92h ;# 
   587  0E92                     # 4910 "C:\Program Files (x86)\Microchip\xc8\v2.00\pic\include\pic16f1455.h"
   588                           UEIR equ 0E93h ;# 
   589  0E93                     # 4961 "C:\Program Files (x86)\Microchip\xc8\v2.00\pic\include\pic16f1455.h"
   590                           UFRM equ 0E94h ;# 
   591  0E94                     # 4968 "C:\Program Files (x86)\Microchip\xc8\v2.00\pic\include\pic16f1455.h"
   592                           UFRMH equ 0E94h ;# 
   593  0E94                     # 5000 "C:\Program Files (x86)\Microchip\xc8\v2.00\pic\include\pic16f1455.h"
   594                           UFRML equ 0E95h ;# 
   595  0E95                     # 5062 "C:\Program Files (x86)\Microchip\xc8\v2.00\pic\include\pic16f1455.h"
   596                           UADDR equ 0E96h ;# 
   597  0E96                     # 5118 "C:\Program Files (x86)\Microchip\xc8\v2.00\pic\include\pic16f1455.h"
   598                           UEIE equ 0E97h ;# 
   599  0E97                     # 5169 "C:\Program Files (x86)\Microchip\xc8\v2.00\pic\include\pic16f1455.h"
   600                           UEP0 equ 0E98h ;# 
   601  0E98                     # 5213 "C:\Program Files (x86)\Microchip\xc8\v2.00\pic\include\pic16f1455.h"
   602                           UEP1 equ 0E99h ;# 
   603  0E99                     # 5257 "C:\Program Files (x86)\Microchip\xc8\v2.00\pic\include\pic16f1455.h"
   604                           UEP2 equ 0E9Ah ;# 
   605  0E9A                     # 5301 "C:\Program Files (x86)\Microchip\xc8\v2.00\pic\include\pic16f1455.h"
   606                           UEP3 equ 0E9Bh ;# 
   607  0E9B                     # 5345 "C:\Program Files (x86)\Microchip\xc8\v2.00\pic\include\pic16f1455.h"
   608                           UEP4 equ 0E9Ch ;# 
   609  0E9C                     # 5389 "C:\Program Files (x86)\Microchip\xc8\v2.00\pic\include\pic16f1455.h"
   610                           UEP5 equ 0E9Dh ;# 
   611  0E9D                     # 5433 "C:\Program Files (x86)\Microchip\xc8\v2.00\pic\include\pic16f1455.h"
   612                           UEP6 equ 0E9Eh ;# 
   613  0E9E                     # 5477 "C:\Program Files (x86)\Microchip\xc8\v2.00\pic\include\pic16f1455.h"
   614                           UEP7 equ 0E9Fh ;# 
   615  0E9F                     # 5521 "C:\Program Files (x86)\Microchip\xc8\v2.00\pic\include\pic16f1455.h"
   616                           STATUS_SHAD equ 0FE4h ;# 
   617  0FE4                     # 5553 "C:\Program Files (x86)\Microchip\xc8\v2.00\pic\include\pic16f1455.h"
   618                           WREG_SHAD equ 0FE5h ;# 
   619  0FE5                     # 5573 "C:\Program Files (x86)\Microchip\xc8\v2.00\pic\include\pic16f1455.h"
   620                           BSR_SHAD equ 0FE6h ;# 
   621  0FE6                     # 5593 "C:\Program Files (x86)\Microchip\xc8\v2.00\pic\include\pic16f1455.h"
   622                           PCLATH_SHAD equ 0FE7h ;# 
   623  0FE7                     # 5613 "C:\Program Files (x86)\Microchip\xc8\v2.00\pic\include\pic16f1455.h"
   624                           FSR0L_SHAD equ 0FE8h ;# 
   625  0FE8                     # 5633 "C:\Program Files (x86)\Microchip\xc8\v2.00\pic\include\pic16f1455.h"
   626                           FSR0H_SHAD equ 0FE9h ;# 
   627  0FE9                     # 5653 "C:\Program Files (x86)\Microchip\xc8\v2.00\pic\include\pic16f1455.h"
   628                           FSR1L_SHAD equ 0FEAh ;# 
   629  0FEA                     # 5673 "C:\Program Files (x86)\Microchip\xc8\v2.00\pic\include\pic16f1455.h"
   630                           FSR1H_SHAD equ 0FEBh ;# 
   631  0FEB                     # 5693 "C:\Program Files (x86)\Microchip\xc8\v2.00\pic\include\pic16f1455.h"
   632                           STKPTR equ 0FEDh ;# 
   633  0FED                     # 5713 "C:\Program Files (x86)\Microchip\xc8\v2.00\pic\include\pic16f1455.h"
   634                           TOSL equ 0FEEh ;# 
   635  0FEE                     # 5733 "C:\Program Files (x86)\Microchip\xc8\v2.00\pic\include\pic16f1455.h"
   636                           TOSH equ 0FEFh ;# 
   637  0FEF                     # 54 "C:\Program Files (x86)\Microchip\xc8\v2.00\pic\include\pic16f1455.h"
   638                           INDF0 equ 00h ;# 
   639  0000                     # 74 "C:\Program Files (x86)\Microchip\xc8\v2.00\pic\include\pic16f1455.h"
   640                           INDF1 equ 01h ;# 
   641  0001                     # 94 "C:\Program Files (x86)\Microchip\xc8\v2.00\pic\include\pic16f1455.h"
   642                           PCL equ 02h ;# 
   643  0002                     # 114 "C:\Program Files (x86)\Microchip\xc8\v2.00\pic\include\pic16f1455.h"
   644                           STATUS equ 03h ;# 
   645  0003                     # 177 "C:\Program Files (x86)\Microchip\xc8\v2.00\pic\include\pic16f1455.h"
   646                           FSR0L equ 04h ;# 
   647  0004                     # 197 "C:\Program Files (x86)\Microchip\xc8\v2.00\pic\include\pic16f1455.h"
   648                           FSR0H equ 05h ;# 
   649  0005                     # 221 "C:\Program Files (x86)\Microchip\xc8\v2.00\pic\include\pic16f1455.h"
   650                           FSR1L equ 06h ;# 
   651  0006                     # 241 "C:\Program Files (x86)\Microchip\xc8\v2.00\pic\include\pic16f1455.h"
   652                           FSR1H equ 07h ;# 
   653  0007                     # 261 "C:\Program Files (x86)\Microchip\xc8\v2.00\pic\include\pic16f1455.h"
   654                           BSR equ 08h ;# 
   655  0008                     # 313 "C:\Program Files (x86)\Microchip\xc8\v2.00\pic\include\pic16f1455.h"
   656                           WREG equ 09h ;# 
   657  0009                     # 333 "C:\Program Files (x86)\Microchip\xc8\v2.00\pic\include\pic16f1455.h"
   658                           PCLATH equ 0Ah ;# 
   659  000A                     # 353 "C:\Program Files (x86)\Microchip\xc8\v2.00\pic\include\pic16f1455.h"
   660                           INTCON equ 0Bh ;# 
   661  000B                     # 431 "C:\Program Files (x86)\Microchip\xc8\v2.00\pic\include\pic16f1455.h"
   662                           PORTA equ 0Ch ;# 
   663  000C                     # 476 "C:\Program Files (x86)\Microchip\xc8\v2.00\pic\include\pic16f1455.h"
   664                           PORTC equ 0Eh ;# 
   665  000E                     # 526 "C:\Program Files (x86)\Microchip\xc8\v2.00\pic\include\pic16f1455.h"
   666                           PIR1 equ 011h ;# 
   667  0011                     # 583 "C:\Program Files (x86)\Microchip\xc8\v2.00\pic\include\pic16f1455.h"
   668                           PIR2 equ 012h ;# 
   669  0012                     # 635 "C:\Program Files (x86)\Microchip\xc8\v2.00\pic\include\pic16f1455.h"
   670                           TMR0 equ 015h ;# 
   671  0015                     # 655 "C:\Program Files (x86)\Microchip\xc8\v2.00\pic\include\pic16f1455.h"
   672                           TMR1 equ 016h ;# 
   673  0016                     # 662 "C:\Program Files (x86)\Microchip\xc8\v2.00\pic\include\pic16f1455.h"
   674                           TMR1L equ 016h ;# 
   675  0016                     # 682 "C:\Program Files (x86)\Microchip\xc8\v2.00\pic\include\pic16f1455.h"
   676                           TMR1H equ 017h ;# 
   677  0017                     # 702 "C:\Program Files (x86)\Microchip\xc8\v2.00\pic\include\pic16f1455.h"
   678                           T1CON equ 018h ;# 
   679  0018                     # 774 "C:\Program Files (x86)\Microchip\xc8\v2.00\pic\include\pic16f1455.h"
   680                           T1GCON equ 019h ;# 
   681  0019                     # 844 "C:\Program Files (x86)\Microchip\xc8\v2.00\pic\include\pic16f1455.h"
   682                           TMR2 equ 01Ah ;# 
   683  001A                     # 864 "C:\Program Files (x86)\Microchip\xc8\v2.00\pic\include\pic16f1455.h"
   684                           PR2 equ 01Bh ;# 
   685  001B                     # 884 "C:\Program Files (x86)\Microchip\xc8\v2.00\pic\include\pic16f1455.h"
   686                           T2CON equ 01Ch ;# 
   687  001C                     # 955 "C:\Program Files (x86)\Microchip\xc8\v2.00\pic\include\pic16f1455.h"
   688                           TRISA equ 08Ch ;# 
   689  008C                     # 982 "C:\Program Files (x86)\Microchip\xc8\v2.00\pic\include\pic16f1455.h"
   690                           TRISC equ 08Eh ;# 
   691  008E                     # 1032 "C:\Program Files (x86)\Microchip\xc8\v2.00\pic\include\pic16f1455.h"
   692                           PIE1 equ 091h ;# 
   693  0091                     # 1089 "C:\Program Files (x86)\Microchip\xc8\v2.00\pic\include\pic16f1455.h"
   694                           PIE2 equ 092h ;# 
   695  0092                     # 1141 "C:\Program Files (x86)\Microchip\xc8\v2.00\pic\include\pic16f1455.h"
   696                           OPTION_REG equ 095h ;# 
   697  0095                     # 1224 "C:\Program Files (x86)\Microchip\xc8\v2.00\pic\include\pic16f1455.h"
   698                           PCON equ 096h ;# 
   699  0096                     # 1281 "C:\Program Files (x86)\Microchip\xc8\v2.00\pic\include\pic16f1455.h"
   700                           WDTCON equ 097h ;# 
   701  0097                     # 1340 "C:\Program Files (x86)\Microchip\xc8\v2.00\pic\include\pic16f1455.h"
   702                           OSCTUNE equ 098h ;# 
   703  0098                     # 1404 "C:\Program Files (x86)\Microchip\xc8\v2.00\pic\include\pic16f1455.h"
   704                           OSCCON equ 099h ;# 
   705  0099                     # 1480 "C:\Program Files (x86)\Microchip\xc8\v2.00\pic\include\pic16f1455.h"
   706                           OSCSTAT equ 09Ah ;# 
   707  009A                     # 1531 "C:\Program Files (x86)\Microchip\xc8\v2.00\pic\include\pic16f1455.h"
   708                           ADRES equ 09Bh ;# 
   709  009B                     # 1538 "C:\Program Files (x86)\Microchip\xc8\v2.00\pic\include\pic16f1455.h"
   710                           ADRESL equ 09Bh ;# 
   711  009B                     # 1558 "C:\Program Files (x86)\Microchip\xc8\v2.00\pic\include\pic16f1455.h"
   712                           ADRESH equ 09Ch ;# 
   713  009C                     # 1578 "C:\Program Files (x86)\Microchip\xc8\v2.00\pic\include\pic16f1455.h"
   714                           ADCON0 equ 09Dh ;# 
   715  009D                     # 1658 "C:\Program Files (x86)\Microchip\xc8\v2.00\pic\include\pic16f1455.h"
   716                           ADCON1 equ 09Eh ;# 
   717  009E                     # 1724 "C:\Program Files (x86)\Microchip\xc8\v2.00\pic\include\pic16f1455.h"
   718                           ADCON2 equ 09Fh ;# 
   719  009F                     # 1766 "C:\Program Files (x86)\Microchip\xc8\v2.00\pic\include\pic16f1455.h"
   720                           LATA equ 010Ch ;# 
   721  010C                     # 1793 "C:\Program Files (x86)\Microchip\xc8\v2.00\pic\include\pic16f1455.h"
   722                           LATC equ 010Eh ;# 
   723  010E                     # 1843 "C:\Program Files (x86)\Microchip\xc8\v2.00\pic\include\pic16f1455.h"
   724                           CM1CON0 equ 0111h ;# 
   725  0111                     # 1900 "C:\Program Files (x86)\Microchip\xc8\v2.00\pic\include\pic16f1455.h"
   726                           CM1CON1 equ 0112h ;# 
   727  0112                     # 1972 "C:\Program Files (x86)\Microchip\xc8\v2.00\pic\include\pic16f1455.h"
   728                           CM2CON0 equ 0113h ;# 
   729  0113                     # 2029 "C:\Program Files (x86)\Microchip\xc8\v2.00\pic\include\pic16f1455.h"
   730                           CM2CON1 equ 0114h ;# 
   731  0114                     # 2101 "C:\Program Files (x86)\Microchip\xc8\v2.00\pic\include\pic16f1455.h"
   732                           CMOUT equ 0115h ;# 
   733  0115                     # 2127 "C:\Program Files (x86)\Microchip\xc8\v2.00\pic\include\pic16f1455.h"
   734                           BORCON equ 0116h ;# 
   735  0116                     # 2160 "C:\Program Files (x86)\Microchip\xc8\v2.00\pic\include\pic16f1455.h"
   736                           FVRCON equ 0117h ;# 
   737  0117                     # 2236 "C:\Program Files (x86)\Microchip\xc8\v2.00\pic\include\pic16f1455.h"
   738                           DACCON0 equ 0118h ;# 
   739  0118                     # 2291 "C:\Program Files (x86)\Microchip\xc8\v2.00\pic\include\pic16f1455.h"
   740                           DACCON1 equ 0119h ;# 
   741  0119                     # 2343 "C:\Program Files (x86)\Microchip\xc8\v2.00\pic\include\pic16f1455.h"
   742                           APFCON equ 011Dh ;# 
   743  011D                     # 2389 "C:\Program Files (x86)\Microchip\xc8\v2.00\pic\include\pic16f1455.h"
   744                           ANSELA equ 018Ch ;# 
   745  018C                     # 2418 "C:\Program Files (x86)\Microchip\xc8\v2.00\pic\include\pic16f1455.h"
   746                           ANSELC equ 018Eh ;# 
   747  018E                     # 2464 "C:\Program Files (x86)\Microchip\xc8\v2.00\pic\include\pic16f1455.h"
   748                           PMADR equ 0191h ;# 
   749  0191                     # 2471 "C:\Program Files (x86)\Microchip\xc8\v2.00\pic\include\pic16f1455.h"
   750                           PMADRL equ 0191h ;# 
   751  0191                     # 2491 "C:\Program Files (x86)\Microchip\xc8\v2.00\pic\include\pic16f1455.h"
   752                           PMADRH equ 0192h ;# 
   753  0192                     # 2511 "C:\Program Files (x86)\Microchip\xc8\v2.00\pic\include\pic16f1455.h"
   754                           PMDAT equ 0193h ;# 
   755  0193                     # 2518 "C:\Program Files (x86)\Microchip\xc8\v2.00\pic\include\pic16f1455.h"
   756                           PMDATL equ 0193h ;# 
   757  0193                     # 2538 "C:\Program Files (x86)\Microchip\xc8\v2.00\pic\include\pic16f1455.h"
   758                           PMDATH equ 0194h ;# 
   759  0194                     # 2558 "C:\Program Files (x86)\Microchip\xc8\v2.00\pic\include\pic16f1455.h"
   760                           PMCON1 equ 0195h ;# 
   761  0195                     # 2614 "C:\Program Files (x86)\Microchip\xc8\v2.00\pic\include\pic16f1455.h"
   762                           PMCON2 equ 0196h ;# 
   763  0196                     # 2634 "C:\Program Files (x86)\Microchip\xc8\v2.00\pic\include\pic16f1455.h"
   764                           VREGCON equ 0197h ;# 
   765  0197                     # 2668 "C:\Program Files (x86)\Microchip\xc8\v2.00\pic\include\pic16f1455.h"
   766                           RCREG equ 0199h ;# 
   767  0199                     # 2688 "C:\Program Files (x86)\Microchip\xc8\v2.00\pic\include\pic16f1455.h"
   768                           TXREG equ 019Ah ;# 
   769  019A                     # 2708 "C:\Program Files (x86)\Microchip\xc8\v2.00\pic\include\pic16f1455.h"
   770                           SPBRG equ 019Bh ;# 
   771  019B                     # 2715 "C:\Program Files (x86)\Microchip\xc8\v2.00\pic\include\pic16f1455.h"
   772                           SPBRGL equ 019Bh ;# 
   773  019B                     # 2735 "C:\Program Files (x86)\Microchip\xc8\v2.00\pic\include\pic16f1455.h"
   774                           SPBRGH equ 019Ch ;# 
   775  019C                     # 2755 "C:\Program Files (x86)\Microchip\xc8\v2.00\pic\include\pic16f1455.h"
   776                           RCSTA equ 019Dh ;# 
   777  019D                     # 2817 "C:\Program Files (x86)\Microchip\xc8\v2.00\pic\include\pic16f1455.h"
   778                           TXSTA equ 019Eh ;# 
   779  019E                     # 2879 "C:\Program Files (x86)\Microchip\xc8\v2.00\pic\include\pic16f1455.h"
   780                           BAUDCON equ 019Fh ;# 
   781  019F                     # 2931 "C:\Program Files (x86)\Microchip\xc8\v2.00\pic\include\pic16f1455.h"
   782                           WPUA equ 020Ch ;# 
   783  020C                     # 2972 "C:\Program Files (x86)\Microchip\xc8\v2.00\pic\include\pic16f1455.h"
   784                           SSP1BUF equ 0211h ;# 
   785  0211                     # 2977 "C:\Program Files (x86)\Microchip\xc8\v2.00\pic\include\pic16f1455.h"
   786                           SSPBUF equ 0211h ;# 
   787  0211                     # 3010 "C:\Program Files (x86)\Microchip\xc8\v2.00\pic\include\pic16f1455.h"
   788                           SSP1ADD equ 0212h ;# 
   789  0212                     # 3015 "C:\Program Files (x86)\Microchip\xc8\v2.00\pic\include\pic16f1455.h"
   790                           SSPADD equ 0212h ;# 
   791  0212                     # 3048 "C:\Program Files (x86)\Microchip\xc8\v2.00\pic\include\pic16f1455.h"
   792                           SSP1MSK equ 0213h ;# 
   793  0213                     # 3053 "C:\Program Files (x86)\Microchip\xc8\v2.00\pic\include\pic16f1455.h"
   794                           SSPMSK equ 0213h ;# 
   795  0213                     # 3086 "C:\Program Files (x86)\Microchip\xc8\v2.00\pic\include\pic16f1455.h"
   796                           SSP1STAT equ 0214h ;# 
   797  0214                     # 3091 "C:\Program Files (x86)\Microchip\xc8\v2.00\pic\include\pic16f1455.h"
   798                           SSPSTAT equ 0214h ;# 
   799  0214                     # 3208 "C:\Program Files (x86)\Microchip\xc8\v2.00\pic\include\pic16f1455.h"
   800                           SSP1CON1 equ 0215h ;# 
   801  0215                     # 3213 "C:\Program Files (x86)\Microchip\xc8\v2.00\pic\include\pic16f1455.h"
   802                           SSPCON equ 0215h ;# 
   803  0215                     # 3217 "C:\Program Files (x86)\Microchip\xc8\v2.00\pic\include\pic16f1455.h"
   804                           SSPCON1 equ 0215h ;# 
   805  0215                     # 3451 "C:\Program Files (x86)\Microchip\xc8\v2.00\pic\include\pic16f1455.h"
   806                           SSP1CON2 equ 0216h ;# 
   807  0216                     # 3456 "C:\Program Files (x86)\Microchip\xc8\v2.00\pic\include\pic16f1455.h"
   808                           SSPCON2 equ 0216h ;# 
   809  0216                     # 3573 "C:\Program Files (x86)\Microchip\xc8\v2.00\pic\include\pic16f1455.h"
   810                           SSP1CON3 equ 0217h ;# 
   811  0217                     # 3578 "C:\Program Files (x86)\Microchip\xc8\v2.00\pic\include\pic16f1455.h"
   812                           SSPCON3 equ 0217h ;# 
   813  0217                     # 3695 "C:\Program Files (x86)\Microchip\xc8\v2.00\pic\include\pic16f1455.h"
   814                           IOCAP equ 0391h ;# 
   815  0391                     # 3748 "C:\Program Files (x86)\Microchip\xc8\v2.00\pic\include\pic16f1455.h"
   816                           IOCAN equ 0392h ;# 
   817  0392                     # 3801 "C:\Program Files (x86)\Microchip\xc8\v2.00\pic\include\pic16f1455.h"
   818                           IOCAF equ 0393h ;# 
   819  0393                     # 3854 "C:\Program Files (x86)\Microchip\xc8\v2.00\pic\include\pic16f1455.h"
   820                           CLKRCON equ 039Ah ;# 
   821  039A                     # 3930 "C:\Program Files (x86)\Microchip\xc8\v2.00\pic\include\pic16f1455.h"
   822                           ACTCON equ 039Bh ;# 
   823  039B                     # 3977 "C:\Program Files (x86)\Microchip\xc8\v2.00\pic\include\pic16f1455.h"
   824                           PWM1DCL equ 0611h ;# 
   825  0611                     # 4013 "C:\Program Files (x86)\Microchip\xc8\v2.00\pic\include\pic16f1455.h"
   826                           PWM1DCH equ 0612h ;# 
   827  0612                     # 4083 "C:\Program Files (x86)\Microchip\xc8\v2.00\pic\include\pic16f1455.h"
   828                           PWM1CON equ 0613h ;# 
   829  0613                     # 4088 "C:\Program Files (x86)\Microchip\xc8\v2.00\pic\include\pic16f1455.h"
   830                           PWM1CON0 equ 0613h ;# 
   831  0613                     # 4159 "C:\Program Files (x86)\Microchip\xc8\v2.00\pic\include\pic16f1455.h"
   832                           PWM2DCL equ 0614h ;# 
   833  0614                     # 4195 "C:\Program Files (x86)\Microchip\xc8\v2.00\pic\include\pic16f1455.h"
   834                           PWM2DCH equ 0615h ;# 
   835  0615                     # 4265 "C:\Program Files (x86)\Microchip\xc8\v2.00\pic\include\pic16f1455.h"
   836                           PWM2CON equ 0616h ;# 
   837  0616                     # 4270 "C:\Program Files (x86)\Microchip\xc8\v2.00\pic\include\pic16f1455.h"
   838                           PWM2CON0 equ 0616h ;# 
   839  0616                     # 4341 "C:\Program Files (x86)\Microchip\xc8\v2.00\pic\include\pic16f1455.h"
   840                           CWG1DBR equ 0691h ;# 
   841  0691                     # 4399 "C:\Program Files (x86)\Microchip\xc8\v2.00\pic\include\pic16f1455.h"
   842                           CWG1DBF equ 0692h ;# 
   843  0692                     # 4457 "C:\Program Files (x86)\Microchip\xc8\v2.00\pic\include\pic16f1455.h"
   844                           CWG1CON0 equ 0693h ;# 
   845  0693                     # 4516 "C:\Program Files (x86)\Microchip\xc8\v2.00\pic\include\pic16f1455.h"
   846                           CWG1CON1 equ 0694h ;# 
   847  0694                     # 4587 "C:\Program Files (x86)\Microchip\xc8\v2.00\pic\include\pic16f1455.h"
   848                           CWG1CON2 equ 0695h ;# 
   849  0695                     # 4633 "C:\Program Files (x86)\Microchip\xc8\v2.00\pic\include\pic16f1455.h"
   850                           UCON equ 0E8Eh ;# 
   851  0E8E                     # 4684 "C:\Program Files (x86)\Microchip\xc8\v2.00\pic\include\pic16f1455.h"
   852                           USTAT equ 0E8Fh ;# 
   853  0E8F                     # 4744 "C:\Program Files (x86)\Microchip\xc8\v2.00\pic\include\pic16f1455.h"
   854                           UIR equ 0E90h ;# 
   855  0E90                     # 4800 "C:\Program Files (x86)\Microchip\xc8\v2.00\pic\include\pic16f1455.h"
   856                           UCFG equ 0E91h ;# 
   857  0E91                     # 4854 "C:\Program Files (x86)\Microchip\xc8\v2.00\pic\include\pic16f1455.h"
   858                           UIE equ 0E92h ;# 
   859  0E92                     # 4910 "C:\Program Files (x86)\Microchip\xc8\v2.00\pic\include\pic16f1455.h"
   860                           UEIR equ 0E93h ;# 
   861  0E93                     # 4961 "C:\Program Files (x86)\Microchip\xc8\v2.00\pic\include\pic16f1455.h"
   862                           UFRM equ 0E94h ;# 
   863  0E94                     # 4968 "C:\Program Files (x86)\Microchip\xc8\v2.00\pic\include\pic16f1455.h"
   864                           UFRMH equ 0E94h ;# 
   865  0E94                     # 5000 "C:\Program Files (x86)\Microchip\xc8\v2.00\pic\include\pic16f1455.h"
   866                           UFRML equ 0E95h ;# 
   867  0E95                     # 5062 "C:\Program Files (x86)\Microchip\xc8\v2.00\pic\include\pic16f1455.h"
   868                           UADDR equ 0E96h ;# 
   869  0E96                     # 5118 "C:\Program Files (x86)\Microchip\xc8\v2.00\pic\include\pic16f1455.h"
   870                           UEIE equ 0E97h ;# 
   871  0E97                     # 5169 "C:\Program Files (x86)\Microchip\xc8\v2.00\pic\include\pic16f1455.h"
   872                           UEP0 equ 0E98h ;# 
   873  0E98                     # 5213 "C:\Program Files (x86)\Microchip\xc8\v2.00\pic\include\pic16f1455.h"
   874                           UEP1 equ 0E99h ;# 
   875  0E99                     # 5257 "C:\Program Files (x86)\Microchip\xc8\v2.00\pic\include\pic16f1455.h"
   876                           UEP2 equ 0E9Ah ;# 
   877  0E9A                     # 5301 "C:\Program Files (x86)\Microchip\xc8\v2.00\pic\include\pic16f1455.h"
   878                           UEP3 equ 0E9Bh ;# 
   879  0E9B                     # 5345 "C:\Program Files (x86)\Microchip\xc8\v2.00\pic\include\pic16f1455.h"
   880                           UEP4 equ 0E9Ch ;# 
   881  0E9C                     # 5389 "C:\Program Files (x86)\Microchip\xc8\v2.00\pic\include\pic16f1455.h"
   882                           UEP5 equ 0E9Dh ;# 
   883  0E9D                     # 5433 "C:\Program Files (x86)\Microchip\xc8\v2.00\pic\include\pic16f1455.h"
   884                           UEP6 equ 0E9Eh ;# 
   885  0E9E                     # 5477 "C:\Program Files (x86)\Microchip\xc8\v2.00\pic\include\pic16f1455.h"
   886                           UEP7 equ 0E9Fh ;# 
   887  0E9F                     # 5521 "C:\Program Files (x86)\Microchip\xc8\v2.00\pic\include\pic16f1455.h"
   888                           STATUS_SHAD equ 0FE4h ;# 
   889  0FE4                     # 5553 "C:\Program Files (x86)\Microchip\xc8\v2.00\pic\include\pic16f1455.h"
   890                           WREG_SHAD equ 0FE5h ;# 
   891  0FE5                     # 5573 "C:\Program Files (x86)\Microchip\xc8\v2.00\pic\include\pic16f1455.h"
   892                           BSR_SHAD equ 0FE6h ;# 
   893  0FE6                     # 5593 "C:\Program Files (x86)\Microchip\xc8\v2.00\pic\include\pic16f1455.h"
   894                           PCLATH_SHAD equ 0FE7h ;# 
   895  0FE7                     # 5613 "C:\Program Files (x86)\Microchip\xc8\v2.00\pic\include\pic16f1455.h"
   896                           FSR0L_SHAD equ 0FE8h ;# 
   897  0FE8                     # 5633 "C:\Program Files (x86)\Microchip\xc8\v2.00\pic\include\pic16f1455.h"
   898                           FSR0H_SHAD equ 0FE9h ;# 
   899  0FE9                     # 5653 "C:\Program Files (x86)\Microchip\xc8\v2.00\pic\include\pic16f1455.h"
   900                           FSR1L_SHAD equ 0FEAh ;# 
   901  0FEA                     # 5673 "C:\Program Files (x86)\Microchip\xc8\v2.00\pic\include\pic16f1455.h"
   902                           FSR1H_SHAD equ 0FEBh ;# 
   903  0FEB                     # 5693 "C:\Program Files (x86)\Microchip\xc8\v2.00\pic\include\pic16f1455.h"
   904                           STKPTR equ 0FEDh ;# 
   905  0FED                     # 5713 "C:\Program Files (x86)\Microchip\xc8\v2.00\pic\include\pic16f1455.h"
   906                           TOSL equ 0FEEh ;# 
   907  0FEE                     # 5733 "C:\Program Files (x86)\Microchip\xc8\v2.00\pic\include\pic16f1455.h"
   908                           TOSH equ 0FEFh ;# 
   909  0FEF                     # 54 "C:\Program Files (x86)\Microchip\xc8\v2.00\pic\include\pic16f1455.h"
   910                           INDF0 equ 00h ;# 
   911  0000                     # 74 "C:\Program Files (x86)\Microchip\xc8\v2.00\pic\include\pic16f1455.h"
   912                           INDF1 equ 01h ;# 
   913  0001                     # 94 "C:\Program Files (x86)\Microchip\xc8\v2.00\pic\include\pic16f1455.h"
   914                           PCL equ 02h ;# 
   915  0002                     # 114 "C:\Program Files (x86)\Microchip\xc8\v2.00\pic\include\pic16f1455.h"
   916                           STATUS equ 03h ;# 
   917  0003                     # 177 "C:\Program Files (x86)\Microchip\xc8\v2.00\pic\include\pic16f1455.h"
   918                           FSR0L equ 04h ;# 
   919  0004                     # 197 "C:\Program Files (x86)\Microchip\xc8\v2.00\pic\include\pic16f1455.h"
   920                           FSR0H equ 05h ;# 
   921  0005                     # 221 "C:\Program Files (x86)\Microchip\xc8\v2.00\pic\include\pic16f1455.h"
   922                           FSR1L equ 06h ;# 
   923  0006                     # 241 "C:\Program Files (x86)\Microchip\xc8\v2.00\pic\include\pic16f1455.h"
   924                           FSR1H equ 07h ;# 
   925  0007                     # 261 "C:\Program Files (x86)\Microchip\xc8\v2.00\pic\include\pic16f1455.h"
   926                           BSR equ 08h ;# 
   927  0008                     # 313 "C:\Program Files (x86)\Microchip\xc8\v2.00\pic\include\pic16f1455.h"
   928                           WREG equ 09h ;# 
   929  0009                     # 333 "C:\Program Files (x86)\Microchip\xc8\v2.00\pic\include\pic16f1455.h"
   930                           PCLATH equ 0Ah ;# 
   931  000A                     # 353 "C:\Program Files (x86)\Microchip\xc8\v2.00\pic\include\pic16f1455.h"
   932                           INTCON equ 0Bh ;# 
   933  000B                     # 431 "C:\Program Files (x86)\Microchip\xc8\v2.00\pic\include\pic16f1455.h"
   934                           PORTA equ 0Ch ;# 
   935  000C                     # 476 "C:\Program Files (x86)\Microchip\xc8\v2.00\pic\include\pic16f1455.h"
   936                           PORTC equ 0Eh ;# 
   937  000E                     # 526 "C:\Program Files (x86)\Microchip\xc8\v2.00\pic\include\pic16f1455.h"
   938                           PIR1 equ 011h ;# 
   939  0011                     # 583 "C:\Program Files (x86)\Microchip\xc8\v2.00\pic\include\pic16f1455.h"
   940                           PIR2 equ 012h ;# 
   941  0012                     # 635 "C:\Program Files (x86)\Microchip\xc8\v2.00\pic\include\pic16f1455.h"
   942                           TMR0 equ 015h ;# 
   943  0015                     # 655 "C:\Program Files (x86)\Microchip\xc8\v2.00\pic\include\pic16f1455.h"
   944                           TMR1 equ 016h ;# 
   945  0016                     # 662 "C:\Program Files (x86)\Microchip\xc8\v2.00\pic\include\pic16f1455.h"
   946                           TMR1L equ 016h ;# 
   947  0016                     # 682 "C:\Program Files (x86)\Microchip\xc8\v2.00\pic\include\pic16f1455.h"
   948                           TMR1H equ 017h ;# 
   949  0017                     # 702 "C:\Program Files (x86)\Microchip\xc8\v2.00\pic\include\pic16f1455.h"
   950                           T1CON equ 018h ;# 
   951  0018                     # 774 "C:\Program Files (x86)\Microchip\xc8\v2.00\pic\include\pic16f1455.h"
   952                           T1GCON equ 019h ;# 
   953  0019                     # 844 "C:\Program Files (x86)\Microchip\xc8\v2.00\pic\include\pic16f1455.h"
   954                           TMR2 equ 01Ah ;# 
   955  001A                     # 864 "C:\Program Files (x86)\Microchip\xc8\v2.00\pic\include\pic16f1455.h"
   956                           PR2 equ 01Bh ;# 
   957  001B                     # 884 "C:\Program Files (x86)\Microchip\xc8\v2.00\pic\include\pic16f1455.h"
   958                           T2CON equ 01Ch ;# 
   959  001C                     # 955 "C:\Program Files (x86)\Microchip\xc8\v2.00\pic\include\pic16f1455.h"
   960                           TRISA equ 08Ch ;# 
   961  008C                     # 982 "C:\Program Files (x86)\Microchip\xc8\v2.00\pic\include\pic16f1455.h"
   962                           TRISC equ 08Eh ;# 
   963  008E                     # 1032 "C:\Program Files (x86)\Microchip\xc8\v2.00\pic\include\pic16f1455.h"
   964                           PIE1 equ 091h ;# 
   965  0091                     # 1089 "C:\Program Files (x86)\Microchip\xc8\v2.00\pic\include\pic16f1455.h"
   966                           PIE2 equ 092h ;# 
   967  0092                     # 1141 "C:\Program Files (x86)\Microchip\xc8\v2.00\pic\include\pic16f1455.h"
   968                           OPTION_REG equ 095h ;# 
   969  0095                     # 1224 "C:\Program Files (x86)\Microchip\xc8\v2.00\pic\include\pic16f1455.h"
   970                           PCON equ 096h ;# 
   971  0096                     # 1281 "C:\Program Files (x86)\Microchip\xc8\v2.00\pic\include\pic16f1455.h"
   972                           WDTCON equ 097h ;# 
   973  0097                     # 1340 "C:\Program Files (x86)\Microchip\xc8\v2.00\pic\include\pic16f1455.h"
   974                           OSCTUNE equ 098h ;# 
   975  0098                     # 1404 "C:\Program Files (x86)\Microchip\xc8\v2.00\pic\include\pic16f1455.h"
   976                           OSCCON equ 099h ;# 
   977  0099                     # 1480 "C:\Program Files (x86)\Microchip\xc8\v2.00\pic\include\pic16f1455.h"
   978                           OSCSTAT equ 09Ah ;# 
   979  009A                     # 1531 "C:\Program Files (x86)\Microchip\xc8\v2.00\pic\include\pic16f1455.h"
   980                           ADRES equ 09Bh ;# 
   981  009B                     # 1538 "C:\Program Files (x86)\Microchip\xc8\v2.00\pic\include\pic16f1455.h"
   982                           ADRESL equ 09Bh ;# 
   983  009B                     # 1558 "C:\Program Files (x86)\Microchip\xc8\v2.00\pic\include\pic16f1455.h"
   984                           ADRESH equ 09Ch ;# 
   985  009C                     # 1578 "C:\Program Files (x86)\Microchip\xc8\v2.00\pic\include\pic16f1455.h"
   986                           ADCON0 equ 09Dh ;# 
   987  009D                     # 1658 "C:\Program Files (x86)\Microchip\xc8\v2.00\pic\include\pic16f1455.h"
   988                           ADCON1 equ 09Eh ;# 
   989  009E                     # 1724 "C:\Program Files (x86)\Microchip\xc8\v2.00\pic\include\pic16f1455.h"
   990                           ADCON2 equ 09Fh ;# 
   991  009F                     # 1766 "C:\Program Files (x86)\Microchip\xc8\v2.00\pic\include\pic16f1455.h"
   992                           LATA equ 010Ch ;# 
   993  010C                     # 1793 "C:\Program Files (x86)\Microchip\xc8\v2.00\pic\include\pic16f1455.h"
   994                           LATC equ 010Eh ;# 
   995  010E                     # 1843 "C:\Program Files (x86)\Microchip\xc8\v2.00\pic\include\pic16f1455.h"
   996                           CM1CON0 equ 0111h ;# 
   997  0111                     # 1900 "C:\Program Files (x86)\Microchip\xc8\v2.00\pic\include\pic16f1455.h"
   998                           CM1CON1 equ 0112h ;# 
   999  0112                     # 1972 "C:\Program Files (x86)\Microchip\xc8\v2.00\pic\include\pic16f1455.h"
  1000                           CM2CON0 equ 0113h ;# 
  1001  0113                     # 2029 "C:\Program Files (x86)\Microchip\xc8\v2.00\pic\include\pic16f1455.h"
  1002                           CM2CON1 equ 0114h ;# 
  1003  0114                     # 2101 "C:\Program Files (x86)\Microchip\xc8\v2.00\pic\include\pic16f1455.h"
  1004                           CMOUT equ 0115h ;# 
  1005  0115                     # 2127 "C:\Program Files (x86)\Microchip\xc8\v2.00\pic\include\pic16f1455.h"
  1006                           BORCON equ 0116h ;# 
  1007  0116                     # 2160 "C:\Program Files (x86)\Microchip\xc8\v2.00\pic\include\pic16f1455.h"
  1008                           FVRCON equ 0117h ;# 
  1009  0117                     # 2236 "C:\Program Files (x86)\Microchip\xc8\v2.00\pic\include\pic16f1455.h"
  1010                           DACCON0 equ 0118h ;# 
  1011  0118                     # 2291 "C:\Program Files (x86)\Microchip\xc8\v2.00\pic\include\pic16f1455.h"
  1012                           DACCON1 equ 0119h ;# 
  1013  0119                     # 2343 "C:\Program Files (x86)\Microchip\xc8\v2.00\pic\include\pic16f1455.h"
  1014                           APFCON equ 011Dh ;# 
  1015  011D                     # 2389 "C:\Program Files (x86)\Microchip\xc8\v2.00\pic\include\pic16f1455.h"
  1016                           ANSELA equ 018Ch ;# 
  1017  018C                     # 2418 "C:\Program Files (x86)\Microchip\xc8\v2.00\pic\include\pic16f1455.h"
  1018                           ANSELC equ 018Eh ;# 
  1019  018E                     # 2464 "C:\Program Files (x86)\Microchip\xc8\v2.00\pic\include\pic16f1455.h"
  1020                           PMADR equ 0191h ;# 
  1021  0191                     # 2471 "C:\Program Files (x86)\Microchip\xc8\v2.00\pic\include\pic16f1455.h"
  1022                           PMADRL equ 0191h ;# 
  1023  0191                     # 2491 "C:\Program Files (x86)\Microchip\xc8\v2.00\pic\include\pic16f1455.h"
  1024                           PMADRH equ 0192h ;# 
  1025  0192                     # 2511 "C:\Program Files (x86)\Microchip\xc8\v2.00\pic\include\pic16f1455.h"
  1026                           PMDAT equ 0193h ;# 
  1027  0193                     # 2518 "C:\Program Files (x86)\Microchip\xc8\v2.00\pic\include\pic16f1455.h"
  1028                           PMDATL equ 0193h ;# 
  1029  0193                     # 2538 "C:\Program Files (x86)\Microchip\xc8\v2.00\pic\include\pic16f1455.h"
  1030                           PMDATH equ 0194h ;# 
  1031  0194                     # 2558 "C:\Program Files (x86)\Microchip\xc8\v2.00\pic\include\pic16f1455.h"
  1032                           PMCON1 equ 0195h ;# 
  1033  0195                     # 2614 "C:\Program Files (x86)\Microchip\xc8\v2.00\pic\include\pic16f1455.h"
  1034                           PMCON2 equ 0196h ;# 
  1035  0196                     # 2634 "C:\Program Files (x86)\Microchip\xc8\v2.00\pic\include\pic16f1455.h"
  1036                           VREGCON equ 0197h ;# 
  1037  0197                     # 2668 "C:\Program Files (x86)\Microchip\xc8\v2.00\pic\include\pic16f1455.h"
  1038                           RCREG equ 0199h ;# 
  1039  0199                     # 2688 "C:\Program Files (x86)\Microchip\xc8\v2.00\pic\include\pic16f1455.h"
  1040                           TXREG equ 019Ah ;# 
  1041  019A                     # 2708 "C:\Program Files (x86)\Microchip\xc8\v2.00\pic\include\pic16f1455.h"
  1042                           SPBRG equ 019Bh ;# 
  1043  019B                     # 2715 "C:\Program Files (x86)\Microchip\xc8\v2.00\pic\include\pic16f1455.h"
  1044                           SPBRGL equ 019Bh ;# 
  1045  019B                     # 2735 "C:\Program Files (x86)\Microchip\xc8\v2.00\pic\include\pic16f1455.h"
  1046                           SPBRGH equ 019Ch ;# 
  1047  019C                     # 2755 "C:\Program Files (x86)\Microchip\xc8\v2.00\pic\include\pic16f1455.h"
  1048                           RCSTA equ 019Dh ;# 
  1049  019D                     # 2817 "C:\Program Files (x86)\Microchip\xc8\v2.00\pic\include\pic16f1455.h"
  1050                           TXSTA equ 019Eh ;# 
  1051  019E                     # 2879 "C:\Program Files (x86)\Microchip\xc8\v2.00\pic\include\pic16f1455.h"
  1052                           BAUDCON equ 019Fh ;# 
  1053  019F                     # 2931 "C:\Program Files (x86)\Microchip\xc8\v2.00\pic\include\pic16f1455.h"
  1054                           WPUA equ 020Ch ;# 
  1055  020C                     # 2972 "C:\Program Files (x86)\Microchip\xc8\v2.00\pic\include\pic16f1455.h"
  1056                           SSP1BUF equ 0211h ;# 
  1057  0211                     # 2977 "C:\Program Files (x86)\Microchip\xc8\v2.00\pic\include\pic16f1455.h"
  1058                           SSPBUF equ 0211h ;# 
  1059  0211                     # 3010 "C:\Program Files (x86)\Microchip\xc8\v2.00\pic\include\pic16f1455.h"
  1060                           SSP1ADD equ 0212h ;# 
  1061  0212                     # 3015 "C:\Program Files (x86)\Microchip\xc8\v2.00\pic\include\pic16f1455.h"
  1062                           SSPADD equ 0212h ;# 
  1063  0212                     # 3048 "C:\Program Files (x86)\Microchip\xc8\v2.00\pic\include\pic16f1455.h"
  1064                           SSP1MSK equ 0213h ;# 
  1065  0213                     # 3053 "C:\Program Files (x86)\Microchip\xc8\v2.00\pic\include\pic16f1455.h"
  1066                           SSPMSK equ 0213h ;# 
  1067  0213                     # 3086 "C:\Program Files (x86)\Microchip\xc8\v2.00\pic\include\pic16f1455.h"
  1068                           SSP1STAT equ 0214h ;# 
  1069  0214                     # 3091 "C:\Program Files (x86)\Microchip\xc8\v2.00\pic\include\pic16f1455.h"
  1070                           SSPSTAT equ 0214h ;# 
  1071  0214                     # 3208 "C:\Program Files (x86)\Microchip\xc8\v2.00\pic\include\pic16f1455.h"
  1072                           SSP1CON1 equ 0215h ;# 
  1073  0215                     # 3213 "C:\Program Files (x86)\Microchip\xc8\v2.00\pic\include\pic16f1455.h"
  1074                           SSPCON equ 0215h ;# 
  1075  0215                     # 3217 "C:\Program Files (x86)\Microchip\xc8\v2.00\pic\include\pic16f1455.h"
  1076                           SSPCON1 equ 0215h ;# 
  1077  0215                     # 3451 "C:\Program Files (x86)\Microchip\xc8\v2.00\pic\include\pic16f1455.h"
  1078                           SSP1CON2 equ 0216h ;# 
  1079  0216                     # 3456 "C:\Program Files (x86)\Microchip\xc8\v2.00\pic\include\pic16f1455.h"
  1080                           SSPCON2 equ 0216h ;# 
  1081  0216                     # 3573 "C:\Program Files (x86)\Microchip\xc8\v2.00\pic\include\pic16f1455.h"
  1082                           SSP1CON3 equ 0217h ;# 
  1083  0217                     # 3578 "C:\Program Files (x86)\Microchip\xc8\v2.00\pic\include\pic16f1455.h"
  1084                           SSPCON3 equ 0217h ;# 
  1085  0217                     # 3695 "C:\Program Files (x86)\Microchip\xc8\v2.00\pic\include\pic16f1455.h"
  1086                           IOCAP equ 0391h ;# 
  1087  0391                     # 3748 "C:\Program Files (x86)\Microchip\xc8\v2.00\pic\include\pic16f1455.h"
  1088                           IOCAN equ 0392h ;# 
  1089  0392                     # 3801 "C:\Program Files (x86)\Microchip\xc8\v2.00\pic\include\pic16f1455.h"
  1090                           IOCAF equ 0393h ;# 
  1091  0393                     # 3854 "C:\Program Files (x86)\Microchip\xc8\v2.00\pic\include\pic16f1455.h"
  1092                           CLKRCON equ 039Ah ;# 
  1093  039A                     # 3930 "C:\Program Files (x86)\Microchip\xc8\v2.00\pic\include\pic16f1455.h"
  1094                           ACTCON equ 039Bh ;# 
  1095  039B                     # 3977 "C:\Program Files (x86)\Microchip\xc8\v2.00\pic\include\pic16f1455.h"
  1096                           PWM1DCL equ 0611h ;# 
  1097  0611                     # 4013 "C:\Program Files (x86)\Microchip\xc8\v2.00\pic\include\pic16f1455.h"
  1098                           PWM1DCH equ 0612h ;# 
  1099  0612                     # 4083 "C:\Program Files (x86)\Microchip\xc8\v2.00\pic\include\pic16f1455.h"
  1100                           PWM1CON equ 0613h ;# 
  1101  0613                     # 4088 "C:\Program Files (x86)\Microchip\xc8\v2.00\pic\include\pic16f1455.h"
  1102                           PWM1CON0 equ 0613h ;# 
  1103  0613                     # 4159 "C:\Program Files (x86)\Microchip\xc8\v2.00\pic\include\pic16f1455.h"
  1104                           PWM2DCL equ 0614h ;# 
  1105  0614                     # 4195 "C:\Program Files (x86)\Microchip\xc8\v2.00\pic\include\pic16f1455.h"
  1106                           PWM2DCH equ 0615h ;# 
  1107  0615                     # 4265 "C:\Program Files (x86)\Microchip\xc8\v2.00\pic\include\pic16f1455.h"
  1108                           PWM2CON equ 0616h ;# 
  1109  0616                     # 4270 "C:\Program Files (x86)\Microchip\xc8\v2.00\pic\include\pic16f1455.h"
  1110                           PWM2CON0 equ 0616h ;# 
  1111  0616                     # 4341 "C:\Program Files (x86)\Microchip\xc8\v2.00\pic\include\pic16f1455.h"
  1112                           CWG1DBR equ 0691h ;# 
  1113  0691                     # 4399 "C:\Program Files (x86)\Microchip\xc8\v2.00\pic\include\pic16f1455.h"
  1114                           CWG1DBF equ 0692h ;# 
  1115  0692                     # 4457 "C:\Program Files (x86)\Microchip\xc8\v2.00\pic\include\pic16f1455.h"
  1116                           CWG1CON0 equ 0693h ;# 
  1117  0693                     # 4516 "C:\Program Files (x86)\Microchip\xc8\v2.00\pic\include\pic16f1455.h"
  1118                           CWG1CON1 equ 0694h ;# 
  1119  0694                     # 4587 "C:\Program Files (x86)\Microchip\xc8\v2.00\pic\include\pic16f1455.h"
  1120                           CWG1CON2 equ 0695h ;# 
  1121  0695                     # 4633 "C:\Program Files (x86)\Microchip\xc8\v2.00\pic\include\pic16f1455.h"
  1122                           UCON equ 0E8Eh ;# 
  1123  0E8E                     # 4684 "C:\Program Files (x86)\Microchip\xc8\v2.00\pic\include\pic16f1455.h"
  1124                           USTAT equ 0E8Fh ;# 
  1125  0E8F                     # 4744 "C:\Program Files (x86)\Microchip\xc8\v2.00\pic\include\pic16f1455.h"
  1126                           UIR equ 0E90h ;# 
  1127  0E90                     # 4800 "C:\Program Files (x86)\Microchip\xc8\v2.00\pic\include\pic16f1455.h"
  1128                           UCFG equ 0E91h ;# 
  1129  0E91                     # 4854 "C:\Program Files (x86)\Microchip\xc8\v2.00\pic\include\pic16f1455.h"
  1130                           UIE equ 0E92h ;# 
  1131  0E92                     # 4910 "C:\Program Files (x86)\Microchip\xc8\v2.00\pic\include\pic16f1455.h"
  1132                           UEIR equ 0E93h ;# 
  1133  0E93                     # 4961 "C:\Program Files (x86)\Microchip\xc8\v2.00\pic\include\pic16f1455.h"
  1134                           UFRM equ 0E94h ;# 
  1135  0E94                     # 4968 "C:\Program Files (x86)\Microchip\xc8\v2.00\pic\include\pic16f1455.h"
  1136                           UFRMH equ 0E94h ;# 
  1137  0E94                     # 5000 "C:\Program Files (x86)\Microchip\xc8\v2.00\pic\include\pic16f1455.h"
  1138                           UFRML equ 0E95h ;# 
  1139  0E95                     # 5062 "C:\Program Files (x86)\Microchip\xc8\v2.00\pic\include\pic16f1455.h"
  1140                           UADDR equ 0E96h ;# 
  1141  0E96                     # 5118 "C:\Program Files (x86)\Microchip\xc8\v2.00\pic\include\pic16f1455.h"
  1142                           UEIE equ 0E97h ;# 
  1143  0E97                     # 5169 "C:\Program Files (x86)\Microchip\xc8\v2.00\pic\include\pic16f1455.h"
  1144                           UEP0 equ 0E98h ;# 
  1145  0E98                     # 5213 "C:\Program Files (x86)\Microchip\xc8\v2.00\pic\include\pic16f1455.h"
  1146                           UEP1 equ 0E99h ;# 
  1147  0E99                     # 5257 "C:\Program Files (x86)\Microchip\xc8\v2.00\pic\include\pic16f1455.h"
  1148                           UEP2 equ 0E9Ah ;# 
  1149  0E9A                     # 5301 "C:\Program Files (x86)\Microchip\xc8\v2.00\pic\include\pic16f1455.h"
  1150                           UEP3 equ 0E9Bh ;# 
  1151  0E9B                     # 5345 "C:\Program Files (x86)\Microchip\xc8\v2.00\pic\include\pic16f1455.h"
  1152                           UEP4 equ 0E9Ch ;# 
  1153  0E9C                     # 5389 "C:\Program Files (x86)\Microchip\xc8\v2.00\pic\include\pic16f1455.h"
  1154                           UEP5 equ 0E9Dh ;# 
  1155  0E9D                     # 5433 "C:\Program Files (x86)\Microchip\xc8\v2.00\pic\include\pic16f1455.h"
  1156                           UEP6 equ 0E9Eh ;# 
  1157  0E9E                     # 5477 "C:\Program Files (x86)\Microchip\xc8\v2.00\pic\include\pic16f1455.h"
  1158                           UEP7 equ 0E9Fh ;# 
  1159  0E9F                     # 5521 "C:\Program Files (x86)\Microchip\xc8\v2.00\pic\include\pic16f1455.h"
  1160                           STATUS_SHAD equ 0FE4h ;# 
  1161  0FE4                     # 5553 "C:\Program Files (x86)\Microchip\xc8\v2.00\pic\include\pic16f1455.h"
  1162                           WREG_SHAD equ 0FE5h ;# 
  1163  0FE5                     # 5573 "C:\Program Files (x86)\Microchip\xc8\v2.00\pic\include\pic16f1455.h"
  1164                           BSR_SHAD equ 0FE6h ;# 
  1165  0FE6                     # 5593 "C:\Program Files (x86)\Microchip\xc8\v2.00\pic\include\pic16f1455.h"
  1166                           PCLATH_SHAD equ 0FE7h ;# 
  1167  0FE7                     # 5613 "C:\Program Files (x86)\Microchip\xc8\v2.00\pic\include\pic16f1455.h"
  1168                           FSR0L_SHAD equ 0FE8h ;# 
  1169  0FE8                     # 5633 "C:\Program Files (x86)\Microchip\xc8\v2.00\pic\include\pic16f1455.h"
  1170                           FSR0H_SHAD equ 0FE9h ;# 
  1171  0FE9                     # 5653 "C:\Program Files (x86)\Microchip\xc8\v2.00\pic\include\pic16f1455.h"
  1172                           FSR1L_SHAD equ 0FEAh ;# 
  1173  0FEA                     # 5673 "C:\Program Files (x86)\Microchip\xc8\v2.00\pic\include\pic16f1455.h"
  1174                           FSR1H_SHAD equ 0FEBh ;# 
  1175  0FEB                     # 5693 "C:\Program Files (x86)\Microchip\xc8\v2.00\pic\include\pic16f1455.h"
  1176                           STKPTR equ 0FEDh ;# 
  1177  0FED                     # 5713 "C:\Program Files (x86)\Microchip\xc8\v2.00\pic\include\pic16f1455.h"
  1178                           TOSL equ 0FEEh ;# 
  1179  0FEE                     # 5733 "C:\Program Files (x86)\Microchip\xc8\v2.00\pic\include\pic16f1455.h"
  1180                           TOSH equ 0FEFh ;# 
  1181  0FEF                     # 54 "C:\Program Files (x86)\Microchip\xc8\v2.00\pic\include\pic16f1455.h"
  1182                           INDF0 equ 00h ;# 
  1183  0000                     # 74 "C:\Program Files (x86)\Microchip\xc8\v2.00\pic\include\pic16f1455.h"
  1184                           INDF1 equ 01h ;# 
  1185  0001                     # 94 "C:\Program Files (x86)\Microchip\xc8\v2.00\pic\include\pic16f1455.h"
  1186                           PCL equ 02h ;# 
  1187  0002                     # 114 "C:\Program Files (x86)\Microchip\xc8\v2.00\pic\include\pic16f1455.h"
  1188                           STATUS equ 03h ;# 
  1189  0003                     # 177 "C:\Program Files (x86)\Microchip\xc8\v2.00\pic\include\pic16f1455.h"
  1190                           FSR0L equ 04h ;# 
  1191  0004                     # 197 "C:\Program Files (x86)\Microchip\xc8\v2.00\pic\include\pic16f1455.h"
  1192                           FSR0H equ 05h ;# 
  1193  0005                     # 221 "C:\Program Files (x86)\Microchip\xc8\v2.00\pic\include\pic16f1455.h"
  1194                           FSR1L equ 06h ;# 
  1195  0006                     # 241 "C:\Program Files (x86)\Microchip\xc8\v2.00\pic\include\pic16f1455.h"
  1196                           FSR1H equ 07h ;# 
  1197  0007                     # 261 "C:\Program Files (x86)\Microchip\xc8\v2.00\pic\include\pic16f1455.h"
  1198                           BSR equ 08h ;# 
  1199  0008                     # 313 "C:\Program Files (x86)\Microchip\xc8\v2.00\pic\include\pic16f1455.h"
  1200                           WREG equ 09h ;# 
  1201  0009                     # 333 "C:\Program Files (x86)\Microchip\xc8\v2.00\pic\include\pic16f1455.h"
  1202                           PCLATH equ 0Ah ;# 
  1203  000A                     # 353 "C:\Program Files (x86)\Microchip\xc8\v2.00\pic\include\pic16f1455.h"
  1204                           INTCON equ 0Bh ;# 
  1205  000B                     # 431 "C:\Program Files (x86)\Microchip\xc8\v2.00\pic\include\pic16f1455.h"
  1206                           PORTA equ 0Ch ;# 
  1207  000C                     # 476 "C:\Program Files (x86)\Microchip\xc8\v2.00\pic\include\pic16f1455.h"
  1208                           PORTC equ 0Eh ;# 
  1209  000E                     # 526 "C:\Program Files (x86)\Microchip\xc8\v2.00\pic\include\pic16f1455.h"
  1210                           PIR1 equ 011h ;# 
  1211  0011                     # 583 "C:\Program Files (x86)\Microchip\xc8\v2.00\pic\include\pic16f1455.h"
  1212                           PIR2 equ 012h ;# 
  1213  0012                     # 635 "C:\Program Files (x86)\Microchip\xc8\v2.00\pic\include\pic16f1455.h"
  1214                           TMR0 equ 015h ;# 
  1215  0015                     # 655 "C:\Program Files (x86)\Microchip\xc8\v2.00\pic\include\pic16f1455.h"
  1216                           TMR1 equ 016h ;# 
  1217  0016                     # 662 "C:\Program Files (x86)\Microchip\xc8\v2.00\pic\include\pic16f1455.h"
  1218                           TMR1L equ 016h ;# 
  1219  0016                     # 682 "C:\Program Files (x86)\Microchip\xc8\v2.00\pic\include\pic16f1455.h"
  1220                           TMR1H equ 017h ;# 
  1221  0017                     # 702 "C:\Program Files (x86)\Microchip\xc8\v2.00\pic\include\pic16f1455.h"
  1222                           T1CON equ 018h ;# 
  1223  0018                     # 774 "C:\Program Files (x86)\Microchip\xc8\v2.00\pic\include\pic16f1455.h"
  1224                           T1GCON equ 019h ;# 
  1225  0019                     # 844 "C:\Program Files (x86)\Microchip\xc8\v2.00\pic\include\pic16f1455.h"
  1226                           TMR2 equ 01Ah ;# 
  1227  001A                     # 864 "C:\Program Files (x86)\Microchip\xc8\v2.00\pic\include\pic16f1455.h"
  1228                           PR2 equ 01Bh ;# 
  1229  001B                     # 884 "C:\Program Files (x86)\Microchip\xc8\v2.00\pic\include\pic16f1455.h"
  1230                           T2CON equ 01Ch ;# 
  1231  001C                     # 955 "C:\Program Files (x86)\Microchip\xc8\v2.00\pic\include\pic16f1455.h"
  1232                           TRISA equ 08Ch ;# 
  1233  008C                     # 982 "C:\Program Files (x86)\Microchip\xc8\v2.00\pic\include\pic16f1455.h"
  1234                           TRISC equ 08Eh ;# 
  1235  008E                     # 1032 "C:\Program Files (x86)\Microchip\xc8\v2.00\pic\include\pic16f1455.h"
  1236                           PIE1 equ 091h ;# 
  1237  0091                     # 1089 "C:\Program Files (x86)\Microchip\xc8\v2.00\pic\include\pic16f1455.h"
  1238                           PIE2 equ 092h ;# 
  1239  0092                     # 1141 "C:\Program Files (x86)\Microchip\xc8\v2.00\pic\include\pic16f1455.h"
  1240                           OPTION_REG equ 095h ;# 
  1241  0095                     # 1224 "C:\Program Files (x86)\Microchip\xc8\v2.00\pic\include\pic16f1455.h"
  1242                           PCON equ 096h ;# 
  1243  0096                     # 1281 "C:\Program Files (x86)\Microchip\xc8\v2.00\pic\include\pic16f1455.h"
  1244                           WDTCON equ 097h ;# 
  1245  0097                     # 1340 "C:\Program Files (x86)\Microchip\xc8\v2.00\pic\include\pic16f1455.h"
  1246                           OSCTUNE equ 098h ;# 
  1247  0098                     # 1404 "C:\Program Files (x86)\Microchip\xc8\v2.00\pic\include\pic16f1455.h"
  1248                           OSCCON equ 099h ;# 
  1249  0099                     # 1480 "C:\Program Files (x86)\Microchip\xc8\v2.00\pic\include\pic16f1455.h"
  1250                           OSCSTAT equ 09Ah ;# 
  1251  009A                     # 1531 "C:\Program Files (x86)\Microchip\xc8\v2.00\pic\include\pic16f1455.h"
  1252                           ADRES equ 09Bh ;# 
  1253  009B                     # 1538 "C:\Program Files (x86)\Microchip\xc8\v2.00\pic\include\pic16f1455.h"
  1254                           ADRESL equ 09Bh ;# 
  1255  009B                     # 1558 "C:\Program Files (x86)\Microchip\xc8\v2.00\pic\include\pic16f1455.h"
  1256                           ADRESH equ 09Ch ;# 
  1257  009C                     # 1578 "C:\Program Files (x86)\Microchip\xc8\v2.00\pic\include\pic16f1455.h"
  1258                           ADCON0 equ 09Dh ;# 
  1259  009D                     # 1658 "C:\Program Files (x86)\Microchip\xc8\v2.00\pic\include\pic16f1455.h"
  1260                           ADCON1 equ 09Eh ;# 
  1261  009E                     # 1724 "C:\Program Files (x86)\Microchip\xc8\v2.00\pic\include\pic16f1455.h"
  1262                           ADCON2 equ 09Fh ;# 
  1263  009F                     # 1766 "C:\Program Files (x86)\Microchip\xc8\v2.00\pic\include\pic16f1455.h"
  1264                           LATA equ 010Ch ;# 
  1265  010C                     # 1793 "C:\Program Files (x86)\Microchip\xc8\v2.00\pic\include\pic16f1455.h"
  1266                           LATC equ 010Eh ;# 
  1267  010E                     # 1843 "C:\Program Files (x86)\Microchip\xc8\v2.00\pic\include\pic16f1455.h"
  1268                           CM1CON0 equ 0111h ;# 
  1269  0111                     # 1900 "C:\Program Files (x86)\Microchip\xc8\v2.00\pic\include\pic16f1455.h"
  1270                           CM1CON1 equ 0112h ;# 
  1271  0112                     # 1972 "C:\Program Files (x86)\Microchip\xc8\v2.00\pic\include\pic16f1455.h"
  1272                           CM2CON0 equ 0113h ;# 
  1273  0113                     # 2029 "C:\Program Files (x86)\Microchip\xc8\v2.00\pic\include\pic16f1455.h"
  1274                           CM2CON1 equ 0114h ;# 
  1275  0114                     # 2101 "C:\Program Files (x86)\Microchip\xc8\v2.00\pic\include\pic16f1455.h"
  1276                           CMOUT equ 0115h ;# 
  1277  0115                     # 2127 "C:\Program Files (x86)\Microchip\xc8\v2.00\pic\include\pic16f1455.h"
  1278                           BORCON equ 0116h ;# 
  1279  0116                     # 2160 "C:\Program Files (x86)\Microchip\xc8\v2.00\pic\include\pic16f1455.h"
  1280                           FVRCON equ 0117h ;# 
  1281  0117                     # 2236 "C:\Program Files (x86)\Microchip\xc8\v2.00\pic\include\pic16f1455.h"
  1282                           DACCON0 equ 0118h ;# 
  1283  0118                     # 2291 "C:\Program Files (x86)\Microchip\xc8\v2.00\pic\include\pic16f1455.h"
  1284                           DACCON1 equ 0119h ;# 
  1285  0119                     # 2343 "C:\Program Files (x86)\Microchip\xc8\v2.00\pic\include\pic16f1455.h"
  1286                           APFCON equ 011Dh ;# 
  1287  011D                     # 2389 "C:\Program Files (x86)\Microchip\xc8\v2.00\pic\include\pic16f1455.h"
  1288                           ANSELA equ 018Ch ;# 
  1289  018C                     # 2418 "C:\Program Files (x86)\Microchip\xc8\v2.00\pic\include\pic16f1455.h"
  1290                           ANSELC equ 018Eh ;# 
  1291  018E                     # 2464 "C:\Program Files (x86)\Microchip\xc8\v2.00\pic\include\pic16f1455.h"
  1292                           PMADR equ 0191h ;# 
  1293  0191                     # 2471 "C:\Program Files (x86)\Microchip\xc8\v2.00\pic\include\pic16f1455.h"
  1294                           PMADRL equ 0191h ;# 
  1295  0191                     # 2491 "C:\Program Files (x86)\Microchip\xc8\v2.00\pic\include\pic16f1455.h"
  1296                           PMADRH equ 0192h ;# 
  1297  0192                     # 2511 "C:\Program Files (x86)\Microchip\xc8\v2.00\pic\include\pic16f1455.h"
  1298                           PMDAT equ 0193h ;# 
  1299  0193                     # 2518 "C:\Program Files (x86)\Microchip\xc8\v2.00\pic\include\pic16f1455.h"
  1300                           PMDATL equ 0193h ;# 
  1301  0193                     # 2538 "C:\Program Files (x86)\Microchip\xc8\v2.00\pic\include\pic16f1455.h"
  1302                           PMDATH equ 0194h ;# 
  1303  0194                     # 2558 "C:\Program Files (x86)\Microchip\xc8\v2.00\pic\include\pic16f1455.h"
  1304                           PMCON1 equ 0195h ;# 
  1305  0195                     # 2614 "C:\Program Files (x86)\Microchip\xc8\v2.00\pic\include\pic16f1455.h"
  1306                           PMCON2 equ 0196h ;# 
  1307  0196                     # 2634 "C:\Program Files (x86)\Microchip\xc8\v2.00\pic\include\pic16f1455.h"
  1308                           VREGCON equ 0197h ;# 
  1309  0197                     # 2668 "C:\Program Files (x86)\Microchip\xc8\v2.00\pic\include\pic16f1455.h"
  1310                           RCREG equ 0199h ;# 
  1311  0199                     # 2688 "C:\Program Files (x86)\Microchip\xc8\v2.00\pic\include\pic16f1455.h"
  1312                           TXREG equ 019Ah ;# 
  1313  019A                     # 2708 "C:\Program Files (x86)\Microchip\xc8\v2.00\pic\include\pic16f1455.h"
  1314                           SPBRG equ 019Bh ;# 
  1315  019B                     # 2715 "C:\Program Files (x86)\Microchip\xc8\v2.00\pic\include\pic16f1455.h"
  1316                           SPBRGL equ 019Bh ;# 
  1317  019B                     # 2735 "C:\Program Files (x86)\Microchip\xc8\v2.00\pic\include\pic16f1455.h"
  1318                           SPBRGH equ 019Ch ;# 
  1319  019C                     # 2755 "C:\Program Files (x86)\Microchip\xc8\v2.00\pic\include\pic16f1455.h"
  1320                           RCSTA equ 019Dh ;# 
  1321  019D                     # 2817 "C:\Program Files (x86)\Microchip\xc8\v2.00\pic\include\pic16f1455.h"
  1322                           TXSTA equ 019Eh ;# 
  1323  019E                     # 2879 "C:\Program Files (x86)\Microchip\xc8\v2.00\pic\include\pic16f1455.h"
  1324                           BAUDCON equ 019Fh ;# 
  1325  019F                     # 2931 "C:\Program Files (x86)\Microchip\xc8\v2.00\pic\include\pic16f1455.h"
  1326                           WPUA equ 020Ch ;# 
  1327  020C                     # 2972 "C:\Program Files (x86)\Microchip\xc8\v2.00\pic\include\pic16f1455.h"
  1328                           SSP1BUF equ 0211h ;# 
  1329  0211                     # 2977 "C:\Program Files (x86)\Microchip\xc8\v2.00\pic\include\pic16f1455.h"
  1330                           SSPBUF equ 0211h ;# 
  1331  0211                     # 3010 "C:\Program Files (x86)\Microchip\xc8\v2.00\pic\include\pic16f1455.h"
  1332                           SSP1ADD equ 0212h ;# 
  1333  0212                     # 3015 "C:\Program Files (x86)\Microchip\xc8\v2.00\pic\include\pic16f1455.h"
  1334                           SSPADD equ 0212h ;# 
  1335  0212                     # 3048 "C:\Program Files (x86)\Microchip\xc8\v2.00\pic\include\pic16f1455.h"
  1336                           SSP1MSK equ 0213h ;# 
  1337  0213                     # 3053 "C:\Program Files (x86)\Microchip\xc8\v2.00\pic\include\pic16f1455.h"
  1338                           SSPMSK equ 0213h ;# 
  1339  0213                     # 3086 "C:\Program Files (x86)\Microchip\xc8\v2.00\pic\include\pic16f1455.h"
  1340                           SSP1STAT equ 0214h ;# 
  1341  0214                     # 3091 "C:\Program Files (x86)\Microchip\xc8\v2.00\pic\include\pic16f1455.h"
  1342                           SSPSTAT equ 0214h ;# 
  1343  0214                     # 3208 "C:\Program Files (x86)\Microchip\xc8\v2.00\pic\include\pic16f1455.h"
  1344                           SSP1CON1 equ 0215h ;# 
  1345  0215                     # 3213 "C:\Program Files (x86)\Microchip\xc8\v2.00\pic\include\pic16f1455.h"
  1346                           SSPCON equ 0215h ;# 
  1347  0215                     # 3217 "C:\Program Files (x86)\Microchip\xc8\v2.00\pic\include\pic16f1455.h"
  1348                           SSPCON1 equ 0215h ;# 
  1349  0215                     # 3451 "C:\Program Files (x86)\Microchip\xc8\v2.00\pic\include\pic16f1455.h"
  1350                           SSP1CON2 equ 0216h ;# 
  1351  0216                     # 3456 "C:\Program Files (x86)\Microchip\xc8\v2.00\pic\include\pic16f1455.h"
  1352                           SSPCON2 equ 0216h ;# 
  1353  0216                     # 3573 "C:\Program Files (x86)\Microchip\xc8\v2.00\pic\include\pic16f1455.h"
  1354                           SSP1CON3 equ 0217h ;# 
  1355  0217                     # 3578 "C:\Program Files (x86)\Microchip\xc8\v2.00\pic\include\pic16f1455.h"
  1356                           SSPCON3 equ 0217h ;# 
  1357  0217                     # 3695 "C:\Program Files (x86)\Microchip\xc8\v2.00\pic\include\pic16f1455.h"
  1358                           IOCAP equ 0391h ;# 
  1359  0391                     # 3748 "C:\Program Files (x86)\Microchip\xc8\v2.00\pic\include\pic16f1455.h"
  1360                           IOCAN equ 0392h ;# 
  1361  0392                     # 3801 "C:\Program Files (x86)\Microchip\xc8\v2.00\pic\include\pic16f1455.h"
  1362                           IOCAF equ 0393h ;# 
  1363  0393                     # 3854 "C:\Program Files (x86)\Microchip\xc8\v2.00\pic\include\pic16f1455.h"
  1364                           CLKRCON equ 039Ah ;# 
  1365  039A                     # 3930 "C:\Program Files (x86)\Microchip\xc8\v2.00\pic\include\pic16f1455.h"
  1366                           ACTCON equ 039Bh ;# 
  1367  039B                     # 3977 "C:\Program Files (x86)\Microchip\xc8\v2.00\pic\include\pic16f1455.h"
  1368                           PWM1DCL equ 0611h ;# 
  1369  0611                     # 4013 "C:\Program Files (x86)\Microchip\xc8\v2.00\pic\include\pic16f1455.h"
  1370                           PWM1DCH equ 0612h ;# 
  1371  0612                     # 4083 "C:\Program Files (x86)\Microchip\xc8\v2.00\pic\include\pic16f1455.h"
  1372                           PWM1CON equ 0613h ;# 
  1373  0613                     # 4088 "C:\Program Files (x86)\Microchip\xc8\v2.00\pic\include\pic16f1455.h"
  1374                           PWM1CON0 equ 0613h ;# 
  1375  0613                     # 4159 "C:\Program Files (x86)\Microchip\xc8\v2.00\pic\include\pic16f1455.h"
  1376                           PWM2DCL equ 0614h ;# 
  1377  0614                     # 4195 "C:\Program Files (x86)\Microchip\xc8\v2.00\pic\include\pic16f1455.h"
  1378                           PWM2DCH equ 0615h ;# 
  1379  0615                     # 4265 "C:\Program Files (x86)\Microchip\xc8\v2.00\pic\include\pic16f1455.h"
  1380                           PWM2CON equ 0616h ;# 
  1381  0616                     # 4270 "C:\Program Files (x86)\Microchip\xc8\v2.00\pic\include\pic16f1455.h"
  1382                           PWM2CON0 equ 0616h ;# 
  1383  0616                     # 4341 "C:\Program Files (x86)\Microchip\xc8\v2.00\pic\include\pic16f1455.h"
  1384                           CWG1DBR equ 0691h ;# 
  1385  0691                     # 4399 "C:\Program Files (x86)\Microchip\xc8\v2.00\pic\include\pic16f1455.h"
  1386                           CWG1DBF equ 0692h ;# 
  1387  0692                     # 4457 "C:\Program Files (x86)\Microchip\xc8\v2.00\pic\include\pic16f1455.h"
  1388                           CWG1CON0 equ 0693h ;# 
  1389  0693                     # 4516 "C:\Program Files (x86)\Microchip\xc8\v2.00\pic\include\pic16f1455.h"
  1390                           CWG1CON1 equ 0694h ;# 
  1391  0694                     # 4587 "C:\Program Files (x86)\Microchip\xc8\v2.00\pic\include\pic16f1455.h"
  1392                           CWG1CON2 equ 0695h ;# 
  1393  0695                     # 4633 "C:\Program Files (x86)\Microchip\xc8\v2.00\pic\include\pic16f1455.h"
  1394                           UCON equ 0E8Eh ;# 
  1395  0E8E                     # 4684 "C:\Program Files (x86)\Microchip\xc8\v2.00\pic\include\pic16f1455.h"
  1396                           USTAT equ 0E8Fh ;# 
  1397  0E8F                     # 4744 "C:\Program Files (x86)\Microchip\xc8\v2.00\pic\include\pic16f1455.h"
  1398                           UIR equ 0E90h ;# 
  1399  0E90                     # 4800 "C:\Program Files (x86)\Microchip\xc8\v2.00\pic\include\pic16f1455.h"
  1400                           UCFG equ 0E91h ;# 
  1401  0E91                     # 4854 "C:\Program Files (x86)\Microchip\xc8\v2.00\pic\include\pic16f1455.h"
  1402                           UIE equ 0E92h ;# 
  1403  0E92                     # 4910 "C:\Program Files (x86)\Microchip\xc8\v2.00\pic\include\pic16f1455.h"
  1404                           UEIR equ 0E93h ;# 
  1405  0E93                     # 4961 "C:\Program Files (x86)\Microchip\xc8\v2.00\pic\include\pic16f1455.h"
  1406                           UFRM equ 0E94h ;# 
  1407  0E94                     # 4968 "C:\Program Files (x86)\Microchip\xc8\v2.00\pic\include\pic16f1455.h"
  1408                           UFRMH equ 0E94h ;# 
  1409  0E94                     # 5000 "C:\Program Files (x86)\Microchip\xc8\v2.00\pic\include\pic16f1455.h"
  1410                           UFRML equ 0E95h ;# 
  1411  0E95                     # 5062 "C:\Program Files (x86)\Microchip\xc8\v2.00\pic\include\pic16f1455.h"
  1412                           UADDR equ 0E96h ;# 
  1413  0E96                     # 5118 "C:\Program Files (x86)\Microchip\xc8\v2.00\pic\include\pic16f1455.h"
  1414                           UEIE equ 0E97h ;# 
  1415  0E97                     # 5169 "C:\Program Files (x86)\Microchip\xc8\v2.00\pic\include\pic16f1455.h"
  1416                           UEP0 equ 0E98h ;# 
  1417  0E98                     # 5213 "C:\Program Files (x86)\Microchip\xc8\v2.00\pic\include\pic16f1455.h"
  1418                           UEP1 equ 0E99h ;# 
  1419  0E99                     # 5257 "C:\Program Files (x86)\Microchip\xc8\v2.00\pic\include\pic16f1455.h"
  1420                           UEP2 equ 0E9Ah ;# 
  1421  0E9A                     # 5301 "C:\Program Files (x86)\Microchip\xc8\v2.00\pic\include\pic16f1455.h"
  1422                           UEP3 equ 0E9Bh ;# 
  1423  0E9B                     # 5345 "C:\Program Files (x86)\Microchip\xc8\v2.00\pic\include\pic16f1455.h"
  1424                           UEP4 equ 0E9Ch ;# 
  1425  0E9C                     # 5389 "C:\Program Files (x86)\Microchip\xc8\v2.00\pic\include\pic16f1455.h"
  1426                           UEP5 equ 0E9Dh ;# 
  1427  0E9D                     # 5433 "C:\Program Files (x86)\Microchip\xc8\v2.00\pic\include\pic16f1455.h"
  1428                           UEP6 equ 0E9Eh ;# 
  1429  0E9E                     # 5477 "C:\Program Files (x86)\Microchip\xc8\v2.00\pic\include\pic16f1455.h"
  1430                           UEP7 equ 0E9Fh ;# 
  1431  0E9F                     # 5521 "C:\Program Files (x86)\Microchip\xc8\v2.00\pic\include\pic16f1455.h"
  1432                           STATUS_SHAD equ 0FE4h ;# 
  1433  0FE4                     # 5553 "C:\Program Files (x86)\Microchip\xc8\v2.00\pic\include\pic16f1455.h"
  1434                           WREG_SHAD equ 0FE5h ;# 
  1435  0FE5                     # 5573 "C:\Program Files (x86)\Microchip\xc8\v2.00\pic\include\pic16f1455.h"
  1436                           BSR_SHAD equ 0FE6h ;# 
  1437  0FE6                     # 5593 "C:\Program Files (x86)\Microchip\xc8\v2.00\pic\include\pic16f1455.h"
  1438                           PCLATH_SHAD equ 0FE7h ;# 
  1439  0FE7                     # 5613 "C:\Program Files (x86)\Microchip\xc8\v2.00\pic\include\pic16f1455.h"
  1440                           FSR0L_SHAD equ 0FE8h ;# 
  1441  0FE8                     # 5633 "C:\Program Files (x86)\Microchip\xc8\v2.00\pic\include\pic16f1455.h"
  1442                           FSR0H_SHAD equ 0FE9h ;# 
  1443  0FE9                     # 5653 "C:\Program Files (x86)\Microchip\xc8\v2.00\pic\include\pic16f1455.h"
  1444                           FSR1L_SHAD equ 0FEAh ;# 
  1445  0FEA                     # 5673 "C:\Program Files (x86)\Microchip\xc8\v2.00\pic\include\pic16f1455.h"
  1446                           FSR1H_SHAD equ 0FEBh ;# 
  1447  0FEB                     # 5693 "C:\Program Files (x86)\Microchip\xc8\v2.00\pic\include\pic16f1455.h"
  1448                           STKPTR equ 0FEDh ;# 
  1449  0FED                     # 5713 "C:\Program Files (x86)\Microchip\xc8\v2.00\pic\include\pic16f1455.h"
  1450                           TOSL equ 0FEEh ;# 
  1451  0FEE                     # 5733 "C:\Program Files (x86)\Microchip\xc8\v2.00\pic\include\pic16f1455.h"
  1452                           TOSH equ 0FEFh ;# 
  1453  0FEF                     # 54 "C:\Program Files (x86)\Microchip\xc8\v2.00\pic\include\pic16f1455.h"
  1454                           INDF0 equ 00h ;# 
  1455  0000                     # 74 "C:\Program Files (x86)\Microchip\xc8\v2.00\pic\include\pic16f1455.h"
  1456                           INDF1 equ 01h ;# 
  1457  0001                     # 94 "C:\Program Files (x86)\Microchip\xc8\v2.00\pic\include\pic16f1455.h"
  1458                           PCL equ 02h ;# 
  1459  0002                     # 114 "C:\Program Files (x86)\Microchip\xc8\v2.00\pic\include\pic16f1455.h"
  1460                           STATUS equ 03h ;# 
  1461  0003                     # 177 "C:\Program Files (x86)\Microchip\xc8\v2.00\pic\include\pic16f1455.h"
  1462                           FSR0L equ 04h ;# 
  1463  0004                     # 197 "C:\Program Files (x86)\Microchip\xc8\v2.00\pic\include\pic16f1455.h"
  1464                           FSR0H equ 05h ;# 
  1465  0005                     # 221 "C:\Program Files (x86)\Microchip\xc8\v2.00\pic\include\pic16f1455.h"
  1466                           FSR1L equ 06h ;# 
  1467  0006                     # 241 "C:\Program Files (x86)\Microchip\xc8\v2.00\pic\include\pic16f1455.h"
  1468                           FSR1H equ 07h ;# 
  1469  0007                     # 261 "C:\Program Files (x86)\Microchip\xc8\v2.00\pic\include\pic16f1455.h"
  1470                           BSR equ 08h ;# 
  1471  0008                     # 313 "C:\Program Files (x86)\Microchip\xc8\v2.00\pic\include\pic16f1455.h"
  1472                           WREG equ 09h ;# 
  1473  0009                     # 333 "C:\Program Files (x86)\Microchip\xc8\v2.00\pic\include\pic16f1455.h"
  1474                           PCLATH equ 0Ah ;# 
  1475  000A                     # 353 "C:\Program Files (x86)\Microchip\xc8\v2.00\pic\include\pic16f1455.h"
  1476                           INTCON equ 0Bh ;# 
  1477  000B                     # 431 "C:\Program Files (x86)\Microchip\xc8\v2.00\pic\include\pic16f1455.h"
  1478                           PORTA equ 0Ch ;# 
  1479  000C                     # 476 "C:\Program Files (x86)\Microchip\xc8\v2.00\pic\include\pic16f1455.h"
  1480                           PORTC equ 0Eh ;# 
  1481  000E                     # 526 "C:\Program Files (x86)\Microchip\xc8\v2.00\pic\include\pic16f1455.h"
  1482                           PIR1 equ 011h ;# 
  1483  0011                     # 583 "C:\Program Files (x86)\Microchip\xc8\v2.00\pic\include\pic16f1455.h"
  1484                           PIR2 equ 012h ;# 
  1485  0012                     # 635 "C:\Program Files (x86)\Microchip\xc8\v2.00\pic\include\pic16f1455.h"
  1486                           TMR0 equ 015h ;# 
  1487  0015                     # 655 "C:\Program Files (x86)\Microchip\xc8\v2.00\pic\include\pic16f1455.h"
  1488                           TMR1 equ 016h ;# 
  1489  0016                     # 662 "C:\Program Files (x86)\Microchip\xc8\v2.00\pic\include\pic16f1455.h"
  1490                           TMR1L equ 016h ;# 
  1491  0016                     # 682 "C:\Program Files (x86)\Microchip\xc8\v2.00\pic\include\pic16f1455.h"
  1492                           TMR1H equ 017h ;# 
  1493  0017                     # 702 "C:\Program Files (x86)\Microchip\xc8\v2.00\pic\include\pic16f1455.h"
  1494                           T1CON equ 018h ;# 
  1495  0018                     # 774 "C:\Program Files (x86)\Microchip\xc8\v2.00\pic\include\pic16f1455.h"
  1496                           T1GCON equ 019h ;# 
  1497  0019                     # 844 "C:\Program Files (x86)\Microchip\xc8\v2.00\pic\include\pic16f1455.h"
  1498                           TMR2 equ 01Ah ;# 
  1499  001A                     # 864 "C:\Program Files (x86)\Microchip\xc8\v2.00\pic\include\pic16f1455.h"
  1500                           PR2 equ 01Bh ;# 
  1501  001B                     # 884 "C:\Program Files (x86)\Microchip\xc8\v2.00\pic\include\pic16f1455.h"
  1502                           T2CON equ 01Ch ;# 
  1503  001C                     # 955 "C:\Program Files (x86)\Microchip\xc8\v2.00\pic\include\pic16f1455.h"
  1504                           TRISA equ 08Ch ;# 
  1505  008C                     # 982 "C:\Program Files (x86)\Microchip\xc8\v2.00\pic\include\pic16f1455.h"
  1506                           TRISC equ 08Eh ;# 
  1507  008E                     # 1032 "C:\Program Files (x86)\Microchip\xc8\v2.00\pic\include\pic16f1455.h"
  1508                           PIE1 equ 091h ;# 
  1509  0091                     # 1089 "C:\Program Files (x86)\Microchip\xc8\v2.00\pic\include\pic16f1455.h"
  1510                           PIE2 equ 092h ;# 
  1511  0092                     # 1141 "C:\Program Files (x86)\Microchip\xc8\v2.00\pic\include\pic16f1455.h"
  1512                           OPTION_REG equ 095h ;# 
  1513  0095                     # 1224 "C:\Program Files (x86)\Microchip\xc8\v2.00\pic\include\pic16f1455.h"
  1514                           PCON equ 096h ;# 
  1515  0096                     # 1281 "C:\Program Files (x86)\Microchip\xc8\v2.00\pic\include\pic16f1455.h"
  1516                           WDTCON equ 097h ;# 
  1517  0097                     # 1340 "C:\Program Files (x86)\Microchip\xc8\v2.00\pic\include\pic16f1455.h"
  1518                           OSCTUNE equ 098h ;# 
  1519  0098                     # 1404 "C:\Program Files (x86)\Microchip\xc8\v2.00\pic\include\pic16f1455.h"
  1520                           OSCCON equ 099h ;# 
  1521  0099                     # 1480 "C:\Program Files (x86)\Microchip\xc8\v2.00\pic\include\pic16f1455.h"
  1522                           OSCSTAT equ 09Ah ;# 
  1523  009A                     # 1531 "C:\Program Files (x86)\Microchip\xc8\v2.00\pic\include\pic16f1455.h"
  1524                           ADRES equ 09Bh ;# 
  1525  009B                     # 1538 "C:\Program Files (x86)\Microchip\xc8\v2.00\pic\include\pic16f1455.h"
  1526                           ADRESL equ 09Bh ;# 
  1527  009B                     # 1558 "C:\Program Files (x86)\Microchip\xc8\v2.00\pic\include\pic16f1455.h"
  1528                           ADRESH equ 09Ch ;# 
  1529  009C                     # 1578 "C:\Program Files (x86)\Microchip\xc8\v2.00\pic\include\pic16f1455.h"
  1530                           ADCON0 equ 09Dh ;# 
  1531  009D                     # 1658 "C:\Program Files (x86)\Microchip\xc8\v2.00\pic\include\pic16f1455.h"
  1532                           ADCON1 equ 09Eh ;# 
  1533  009E                     # 1724 "C:\Program Files (x86)\Microchip\xc8\v2.00\pic\include\pic16f1455.h"
  1534                           ADCON2 equ 09Fh ;# 
  1535  009F                     # 1766 "C:\Program Files (x86)\Microchip\xc8\v2.00\pic\include\pic16f1455.h"
  1536                           LATA equ 010Ch ;# 
  1537  010C                     # 1793 "C:\Program Files (x86)\Microchip\xc8\v2.00\pic\include\pic16f1455.h"
  1538                           LATC equ 010Eh ;# 
  1539  010E                     # 1843 "C:\Program Files (x86)\Microchip\xc8\v2.00\pic\include\pic16f1455.h"
  1540                           CM1CON0 equ 0111h ;# 
  1541  0111                     # 1900 "C:\Program Files (x86)\Microchip\xc8\v2.00\pic\include\pic16f1455.h"
  1542                           CM1CON1 equ 0112h ;# 
  1543  0112                     # 1972 "C:\Program Files (x86)\Microchip\xc8\v2.00\pic\include\pic16f1455.h"
  1544                           CM2CON0 equ 0113h ;# 
  1545  0113                     # 2029 "C:\Program Files (x86)\Microchip\xc8\v2.00\pic\include\pic16f1455.h"
  1546                           CM2CON1 equ 0114h ;# 
  1547  0114                     # 2101 "C:\Program Files (x86)\Microchip\xc8\v2.00\pic\include\pic16f1455.h"
  1548                           CMOUT equ 0115h ;# 
  1549  0115                     # 2127 "C:\Program Files (x86)\Microchip\xc8\v2.00\pic\include\pic16f1455.h"
  1550                           BORCON equ 0116h ;# 
  1551  0116                     # 2160 "C:\Program Files (x86)\Microchip\xc8\v2.00\pic\include\pic16f1455.h"
  1552                           FVRCON equ 0117h ;# 
  1553  0117                     # 2236 "C:\Program Files (x86)\Microchip\xc8\v2.00\pic\include\pic16f1455.h"
  1554                           DACCON0 equ 0118h ;# 
  1555  0118                     # 2291 "C:\Program Files (x86)\Microchip\xc8\v2.00\pic\include\pic16f1455.h"
  1556                           DACCON1 equ 0119h ;# 
  1557  0119                     # 2343 "C:\Program Files (x86)\Microchip\xc8\v2.00\pic\include\pic16f1455.h"
  1558                           APFCON equ 011Dh ;# 
  1559  011D                     # 2389 "C:\Program Files (x86)\Microchip\xc8\v2.00\pic\include\pic16f1455.h"
  1560                           ANSELA equ 018Ch ;# 
  1561  018C                     # 2418 "C:\Program Files (x86)\Microchip\xc8\v2.00\pic\include\pic16f1455.h"
  1562                           ANSELC equ 018Eh ;# 
  1563  018E                     # 2464 "C:\Program Files (x86)\Microchip\xc8\v2.00\pic\include\pic16f1455.h"
  1564                           PMADR equ 0191h ;# 
  1565  0191                     # 2471 "C:\Program Files (x86)\Microchip\xc8\v2.00\pic\include\pic16f1455.h"
  1566                           PMADRL equ 0191h ;# 
  1567  0191                     # 2491 "C:\Program Files (x86)\Microchip\xc8\v2.00\pic\include\pic16f1455.h"
  1568                           PMADRH equ 0192h ;# 
  1569  0192                     # 2511 "C:\Program Files (x86)\Microchip\xc8\v2.00\pic\include\pic16f1455.h"
  1570                           PMDAT equ 0193h ;# 
  1571  0193                     # 2518 "C:\Program Files (x86)\Microchip\xc8\v2.00\pic\include\pic16f1455.h"
  1572                           PMDATL equ 0193h ;# 
  1573  0193                     # 2538 "C:\Program Files (x86)\Microchip\xc8\v2.00\pic\include\pic16f1455.h"
  1574                           PMDATH equ 0194h ;# 
  1575  0194                     # 2558 "C:\Program Files (x86)\Microchip\xc8\v2.00\pic\include\pic16f1455.h"
  1576                           PMCON1 equ 0195h ;# 
  1577  0195                     # 2614 "C:\Program Files (x86)\Microchip\xc8\v2.00\pic\include\pic16f1455.h"
  1578                           PMCON2 equ 0196h ;# 
  1579  0196                     # 2634 "C:\Program Files (x86)\Microchip\xc8\v2.00\pic\include\pic16f1455.h"
  1580                           VREGCON equ 0197h ;# 
  1581  0197                     # 2668 "C:\Program Files (x86)\Microchip\xc8\v2.00\pic\include\pic16f1455.h"
  1582                           RCREG equ 0199h ;# 
  1583  0199                     # 2688 "C:\Program Files (x86)\Microchip\xc8\v2.00\pic\include\pic16f1455.h"
  1584                           TXREG equ 019Ah ;# 
  1585  019A                     # 2708 "C:\Program Files (x86)\Microchip\xc8\v2.00\pic\include\pic16f1455.h"
  1586                           SPBRG equ 019Bh ;# 
  1587  019B                     # 2715 "C:\Program Files (x86)\Microchip\xc8\v2.00\pic\include\pic16f1455.h"
  1588                           SPBRGL equ 019Bh ;# 
  1589  019B                     # 2735 "C:\Program Files (x86)\Microchip\xc8\v2.00\pic\include\pic16f1455.h"
  1590                           SPBRGH equ 019Ch ;# 
  1591  019C                     # 2755 "C:\Program Files (x86)\Microchip\xc8\v2.00\pic\include\pic16f1455.h"
  1592                           RCSTA equ 019Dh ;# 
  1593  019D                     # 2817 "C:\Program Files (x86)\Microchip\xc8\v2.00\pic\include\pic16f1455.h"
  1594                           TXSTA equ 019Eh ;# 
  1595  019E                     # 2879 "C:\Program Files (x86)\Microchip\xc8\v2.00\pic\include\pic16f1455.h"
  1596                           BAUDCON equ 019Fh ;# 
  1597  019F                     # 2931 "C:\Program Files (x86)\Microchip\xc8\v2.00\pic\include\pic16f1455.h"
  1598                           WPUA equ 020Ch ;# 
  1599  020C                     # 2972 "C:\Program Files (x86)\Microchip\xc8\v2.00\pic\include\pic16f1455.h"
  1600                           SSP1BUF equ 0211h ;# 
  1601  0211                     # 2977 "C:\Program Files (x86)\Microchip\xc8\v2.00\pic\include\pic16f1455.h"
  1602                           SSPBUF equ 0211h ;# 
  1603  0211                     # 3010 "C:\Program Files (x86)\Microchip\xc8\v2.00\pic\include\pic16f1455.h"
  1604                           SSP1ADD equ 0212h ;# 
  1605  0212                     # 3015 "C:\Program Files (x86)\Microchip\xc8\v2.00\pic\include\pic16f1455.h"
  1606                           SSPADD equ 0212h ;# 
  1607  0212                     # 3048 "C:\Program Files (x86)\Microchip\xc8\v2.00\pic\include\pic16f1455.h"
  1608                           SSP1MSK equ 0213h ;# 
  1609  0213                     # 3053 "C:\Program Files (x86)\Microchip\xc8\v2.00\pic\include\pic16f1455.h"
  1610                           SSPMSK equ 0213h ;# 
  1611  0213                     # 3086 "C:\Program Files (x86)\Microchip\xc8\v2.00\pic\include\pic16f1455.h"
  1612                           SSP1STAT equ 0214h ;# 
  1613  0214                     # 3091 "C:\Program Files (x86)\Microchip\xc8\v2.00\pic\include\pic16f1455.h"
  1614                           SSPSTAT equ 0214h ;# 
  1615  0214                     # 3208 "C:\Program Files (x86)\Microchip\xc8\v2.00\pic\include\pic16f1455.h"
  1616                           SSP1CON1 equ 0215h ;# 
  1617  0215                     # 3213 "C:\Program Files (x86)\Microchip\xc8\v2.00\pic\include\pic16f1455.h"
  1618                           SSPCON equ 0215h ;# 
  1619  0215                     # 3217 "C:\Program Files (x86)\Microchip\xc8\v2.00\pic\include\pic16f1455.h"
  1620                           SSPCON1 equ 0215h ;# 
  1621  0215                     # 3451 "C:\Program Files (x86)\Microchip\xc8\v2.00\pic\include\pic16f1455.h"
  1622                           SSP1CON2 equ 0216h ;# 
  1623  0216                     # 3456 "C:\Program Files (x86)\Microchip\xc8\v2.00\pic\include\pic16f1455.h"
  1624                           SSPCON2 equ 0216h ;# 
  1625  0216                     # 3573 "C:\Program Files (x86)\Microchip\xc8\v2.00\pic\include\pic16f1455.h"
  1626                           SSP1CON3 equ 0217h ;# 
  1627  0217                     # 3578 "C:\Program Files (x86)\Microchip\xc8\v2.00\pic\include\pic16f1455.h"
  1628                           SSPCON3 equ 0217h ;# 
  1629  0217                     # 3695 "C:\Program Files (x86)\Microchip\xc8\v2.00\pic\include\pic16f1455.h"
  1630                           IOCAP equ 0391h ;# 
  1631  0391                     # 3748 "C:\Program Files (x86)\Microchip\xc8\v2.00\pic\include\pic16f1455.h"
  1632                           IOCAN equ 0392h ;# 
  1633  0392                     # 3801 "C:\Program Files (x86)\Microchip\xc8\v2.00\pic\include\pic16f1455.h"
  1634                           IOCAF equ 0393h ;# 
  1635  0393                     # 3854 "C:\Program Files (x86)\Microchip\xc8\v2.00\pic\include\pic16f1455.h"
  1636                           CLKRCON equ 039Ah ;# 
  1637  039A                     # 3930 "C:\Program Files (x86)\Microchip\xc8\v2.00\pic\include\pic16f1455.h"
  1638                           ACTCON equ 039Bh ;# 
  1639  039B                     # 3977 "C:\Program Files (x86)\Microchip\xc8\v2.00\pic\include\pic16f1455.h"
  1640                           PWM1DCL equ 0611h ;# 
  1641  0611                     # 4013 "C:\Program Files (x86)\Microchip\xc8\v2.00\pic\include\pic16f1455.h"
  1642                           PWM1DCH equ 0612h ;# 
  1643  0612                     # 4083 "C:\Program Files (x86)\Microchip\xc8\v2.00\pic\include\pic16f1455.h"
  1644                           PWM1CON equ 0613h ;# 
  1645  0613                     # 4088 "C:\Program Files (x86)\Microchip\xc8\v2.00\pic\include\pic16f1455.h"
  1646                           PWM1CON0 equ 0613h ;# 
  1647  0613                     # 4159 "C:\Program Files (x86)\Microchip\xc8\v2.00\pic\include\pic16f1455.h"
  1648                           PWM2DCL equ 0614h ;# 
  1649  0614                     # 4195 "C:\Program Files (x86)\Microchip\xc8\v2.00\pic\include\pic16f1455.h"
  1650                           PWM2DCH equ 0615h ;# 
  1651  0615                     # 4265 "C:\Program Files (x86)\Microchip\xc8\v2.00\pic\include\pic16f1455.h"
  1652                           PWM2CON equ 0616h ;# 
  1653  0616                     # 4270 "C:\Program Files (x86)\Microchip\xc8\v2.00\pic\include\pic16f1455.h"
  1654                           PWM2CON0 equ 0616h ;# 
  1655  0616                     # 4341 "C:\Program Files (x86)\Microchip\xc8\v2.00\pic\include\pic16f1455.h"
  1656                           CWG1DBR equ 0691h ;# 
  1657  0691                     # 4399 "C:\Program Files (x86)\Microchip\xc8\v2.00\pic\include\pic16f1455.h"
  1658                           CWG1DBF equ 0692h ;# 
  1659  0692                     # 4457 "C:\Program Files (x86)\Microchip\xc8\v2.00\pic\include\pic16f1455.h"
  1660                           CWG1CON0 equ 0693h ;# 
  1661  0693                     # 4516 "C:\Program Files (x86)\Microchip\xc8\v2.00\pic\include\pic16f1455.h"
  1662                           CWG1CON1 equ 0694h ;# 
  1663  0694                     # 4587 "C:\Program Files (x86)\Microchip\xc8\v2.00\pic\include\pic16f1455.h"
  1664                           CWG1CON2 equ 0695h ;# 
  1665  0695                     # 4633 "C:\Program Files (x86)\Microchip\xc8\v2.00\pic\include\pic16f1455.h"
  1666                           UCON equ 0E8Eh ;# 
  1667  0E8E                     # 4684 "C:\Program Files (x86)\Microchip\xc8\v2.00\pic\include\pic16f1455.h"
  1668                           USTAT equ 0E8Fh ;# 
  1669  0E8F                     # 4744 "C:\Program Files (x86)\Microchip\xc8\v2.00\pic\include\pic16f1455.h"
  1670                           UIR equ 0E90h ;# 
  1671  0E90                     # 4800 "C:\Program Files (x86)\Microchip\xc8\v2.00\pic\include\pic16f1455.h"
  1672                           UCFG equ 0E91h ;# 
  1673  0E91                     # 4854 "C:\Program Files (x86)\Microchip\xc8\v2.00\pic\include\pic16f1455.h"
  1674                           UIE equ 0E92h ;# 
  1675  0E92                     # 4910 "C:\Program Files (x86)\Microchip\xc8\v2.00\pic\include\pic16f1455.h"
  1676                           UEIR equ 0E93h ;# 
  1677  0E93                     # 4961 "C:\Program Files (x86)\Microchip\xc8\v2.00\pic\include\pic16f1455.h"
  1678                           UFRM equ 0E94h ;# 
  1679  0E94                     # 4968 "C:\Program Files (x86)\Microchip\xc8\v2.00\pic\include\pic16f1455.h"
  1680                           UFRMH equ 0E94h ;# 
  1681  0E94                     # 5000 "C:\Program Files (x86)\Microchip\xc8\v2.00\pic\include\pic16f1455.h"
  1682                           UFRML equ 0E95h ;# 
  1683  0E95                     # 5062 "C:\Program Files (x86)\Microchip\xc8\v2.00\pic\include\pic16f1455.h"
  1684                           UADDR equ 0E96h ;# 
  1685  0E96                     # 5118 "C:\Program Files (x86)\Microchip\xc8\v2.00\pic\include\pic16f1455.h"
  1686                           UEIE equ 0E97h ;# 
  1687  0E97                     # 5169 "C:\Program Files (x86)\Microchip\xc8\v2.00\pic\include\pic16f1455.h"
  1688                           UEP0 equ 0E98h ;# 
  1689  0E98                     # 5213 "C:\Program Files (x86)\Microchip\xc8\v2.00\pic\include\pic16f1455.h"
  1690                           UEP1 equ 0E99h ;# 
  1691  0E99                     # 5257 "C:\Program Files (x86)\Microchip\xc8\v2.00\pic\include\pic16f1455.h"
  1692                           UEP2 equ 0E9Ah ;# 
  1693  0E9A                     # 5301 "C:\Program Files (x86)\Microchip\xc8\v2.00\pic\include\pic16f1455.h"
  1694                           UEP3 equ 0E9Bh ;# 
  1695  0E9B                     # 5345 "C:\Program Files (x86)\Microchip\xc8\v2.00\pic\include\pic16f1455.h"
  1696                           UEP4 equ 0E9Ch ;# 
  1697  0E9C                     # 5389 "C:\Program Files (x86)\Microchip\xc8\v2.00\pic\include\pic16f1455.h"
  1698                           UEP5 equ 0E9Dh ;# 
  1699  0E9D                     # 5433 "C:\Program Files (x86)\Microchip\xc8\v2.00\pic\include\pic16f1455.h"
  1700                           UEP6 equ 0E9Eh ;# 
  1701  0E9E                     # 5477 "C:\Program Files (x86)\Microchip\xc8\v2.00\pic\include\pic16f1455.h"
  1702                           UEP7 equ 0E9Fh ;# 
  1703  0E9F                     # 5521 "C:\Program Files (x86)\Microchip\xc8\v2.00\pic\include\pic16f1455.h"
  1704                           STATUS_SHAD equ 0FE4h ;# 
  1705  0FE4                     # 5553 "C:\Program Files (x86)\Microchip\xc8\v2.00\pic\include\pic16f1455.h"
  1706                           WREG_SHAD equ 0FE5h ;# 
  1707  0FE5                     # 5573 "C:\Program Files (x86)\Microchip\xc8\v2.00\pic\include\pic16f1455.h"
  1708                           BSR_SHAD equ 0FE6h ;# 
  1709  0FE6                     # 5593 "C:\Program Files (x86)\Microchip\xc8\v2.00\pic\include\pic16f1455.h"
  1710                           PCLATH_SHAD equ 0FE7h ;# 
  1711  0FE7                     # 5613 "C:\Program Files (x86)\Microchip\xc8\v2.00\pic\include\pic16f1455.h"
  1712                           FSR0L_SHAD equ 0FE8h ;# 
  1713  0FE8                     # 5633 "C:\Program Files (x86)\Microchip\xc8\v2.00\pic\include\pic16f1455.h"
  1714                           FSR0H_SHAD equ 0FE9h ;# 
  1715  0FE9                     # 5653 "C:\Program Files (x86)\Microchip\xc8\v2.00\pic\include\pic16f1455.h"
  1716                           FSR1L_SHAD equ 0FEAh ;# 
  1717  0FEA                     # 5673 "C:\Program Files (x86)\Microchip\xc8\v2.00\pic\include\pic16f1455.h"
  1718                           FSR1H_SHAD equ 0FEBh ;# 
  1719  0FEB                     # 5693 "C:\Program Files (x86)\Microchip\xc8\v2.00\pic\include\pic16f1455.h"
  1720                           STKPTR equ 0FEDh ;# 
  1721  0FED                     # 5713 "C:\Program Files (x86)\Microchip\xc8\v2.00\pic\include\pic16f1455.h"
  1722                           TOSL equ 0FEEh ;# 
  1723  0FEE                     # 5733 "C:\Program Files (x86)\Microchip\xc8\v2.00\pic\include\pic16f1455.h"
  1724                           TOSH equ 0FEFh ;# 
  1725  0FEF                     	FNCALL	_main,_ADC_GetConversionResult
  1726                           	FNCALL	_main,_ADC_IsConversionDone
  1727                           	FNCALL	_main,_ADC_SelectChannel
  1728                           	FNCALL	_main,_ADC_StartConversion
  1729                           	FNCALL	_main,_PWM1_LoadDutyValue
  1730                           	FNCALL	_main,_SYSTEM_Initialize
  1731                           	FNCALL	_main,___wmul
  1732                           	FNCALL	_SYSTEM_Initialize,_ADC_Initialize
  1733                           	FNCALL	_SYSTEM_Initialize,_OSCILLATOR_Initialize
  1734                           	FNCALL	_SYSTEM_Initialize,_PIN_MANAGER_Initialize
  1735                           	FNCALL	_SYSTEM_Initialize,_PWM1_Initialize
  1736                           	FNCALL	_SYSTEM_Initialize,_TMR2_Initialize
  1737                           	FNCALL	_SYSTEM_Initialize,_WDT_Initialize
  1738                           	FNROOT	_main
  1739                           	global	_ValoreADC
  1740                           	global	_DUTYC
  1741                           	global	_Temp
  1742                           	global	_T2CONbits
  1743                           _T2CONbits	set	0x1C
  1744  001C                     	global	_T2CON
  1745                           _T2CON	set	0x1C
  1746  001C                     	global	_PIR1bits
  1747                           _PIR1bits	set	0x11
  1748  0011                     	global	_TMR2
  1749                           _TMR2	set	0x1A
  1750  001A                     	global	_PR2
  1751                           _PR2	set	0x1B
  1752  001B                     	global	_OPTION_REGbits
  1753                           _OPTION_REGbits	set	0x95
  1754  0095                     	global	_TRISC
  1755                           _TRISC	set	0x8E
  1756  008E                     	global	_TRISA
  1757                           _TRISA	set	0x8C
  1758  008C                     	global	_ADCON0bits
  1759                           _ADCON0bits	set	0x9D
  1760  009D                     	global	_ADRESH
  1761                           _ADRESH	set	0x9C
  1762  009C                     	global	_ADRESL
  1763                           _ADRESL	set	0x9B
  1764  009B                     	global	_ADCON2
  1765                           _ADCON2	set	0x9F
  1766  009F                     	global	_ADCON1
  1767                           _ADCON1	set	0x9E
  1768  009E                     	global	_ADCON0
  1769                           _ADCON0	set	0x9D
  1770  009D                     	global	_WDTCON
  1771                           _WDTCON	set	0x97
  1772  0097                     	global	_OSCTUNE
  1773                           _OSCTUNE	set	0x98
  1774  0098                     	global	_OSCCON
  1775                           _OSCCON	set	0x99
  1776  0099                     	global	_APFCON
  1777                           _APFCON	set	0x11D
  1778  011D                     	global	_LATC
  1779                           _LATC	set	0x10E
  1780  010E                     	global	_LATA
  1781                           _LATA	set	0x10C
  1782  010C                     	global	_LATCbits
  1783                           _LATCbits	set	0x10E
  1784  010E                     	global	_BORCON
  1785                           _BORCON	set	0x116
  1786  0116                     	global	_ANSELA
  1787                           _ANSELA	set	0x18C
  1788  018C                     	global	_ANSELC
  1789                           _ANSELC	set	0x18E
  1790  018E                     	global	_WPUA
  1791                           _WPUA	set	0x20C
  1792  020C                     	global	_ACTCON
  1793                           _ACTCON	set	0x39B
  1794  039B                     	global	_PWM1DCL
  1795                           _PWM1DCL	set	0x611
  1796  0611                     	global	_PWM1DCH
  1797                           _PWM1DCH	set	0x612
  1798  0612                     	global	_PWM1CON
  1799                           _PWM1CON	set	0x613
  1800  0613                     ; #config settings
  1801                           global __CFG_FOSC$INTOSC
  1802                           __CFG_FOSC$INTOSC equ 0x0
  1803  0000                     global __CFG_WDTE$OFF
  1804                           __CFG_WDTE$OFF equ 0x0
  1805  0000                     global __CFG_PWRTE$OFF
  1806                           __CFG_PWRTE$OFF equ 0x0
  1807  0000                     global __CFG_MCLRE$ON
  1808                           __CFG_MCLRE$ON equ 0x0
  1809  0000                     global __CFG_CP$OFF
  1810                           __CFG_CP$OFF equ 0x0
  1811  0000                     global __CFG_BOREN$ON
  1812                           __CFG_BOREN$ON equ 0x0
  1813  0000                     global __CFG_CLKOUTEN$OFF
  1814                           __CFG_CLKOUTEN$OFF equ 0x0
  1815  0000                     global __CFG_IESO$ON
  1816                           __CFG_IESO$ON equ 0x0
  1817  0000                     global __CFG_FCMEN$ON
  1818                           __CFG_FCMEN$ON equ 0x0
  1819  0000                     global __CFG_WRT$OFF
  1820                           __CFG_WRT$OFF equ 0x0
  1821  0000                     global __CFG_CPUDIV$CLKDIV2
  1822                           __CFG_CPUDIV$CLKDIV2 equ 0x0
  1823  0000                     global __CFG_USBLSCLK$48MHz
  1824                           __CFG_USBLSCLK$48MHz equ 0x0
  1825  0000                     global __CFG_PLLMULT$4x
  1826                           __CFG_PLLMULT$4x equ 0x0
  1827  0000                     global __CFG_PLLEN$DISABLED
  1828                           __CFG_PLLEN$DISABLED equ 0x0
  1829  0000                     global __CFG_STVREN$ON
  1830                           __CFG_STVREN$ON equ 0x0
  1831  0000                     global __CFG_BORV$LO
  1832                           __CFG_BORV$LO equ 0x0
  1833  0000                     global __CFG_LPBOR$OFF
  1834                           __CFG_LPBOR$OFF equ 0x0
  1835  0000                     global __CFG_LVP$OFF
  1836                           __CFG_LVP$OFF equ 0x0
  1837  0000                     	file	"C:\Users\Marco\AppData\Local\Temp\sctc."
  1838                           	line	#
  1839                           psect cinit,class=CODE,delta=2
  1840                           global start_initialization
  1841                           start_initialization:
  1842  07F7                     
  1843                           global __initialization
  1844                           __initialization:
  1845  07F7                     psect	bssCOMMON,class=COMMON,space=1,noexec
  1846                           global __pbssCOMMON
  1847                           __pbssCOMMON:
  1848  0078                     _ValoreADC:
  1849  0078                            ds      2
  1850  0078                     
  1851                           _DUTYC:
  1852  007A                            ds      2
  1853  007A                     
  1854                           _Temp:
  1855  007C                            ds      2
  1856  007C                     
  1857                           	file	"C:\Users\Marco\AppData\Local\Temp\sctc."
  1858                           	line	#
  1859                           ; Clear objects allocated to COMMON
  1860                           psect cinit,class=CODE,delta=2,merge=1
  1861                           	global __pbssCOMMON
  1862                           	clrf	((__pbssCOMMON)+0)&07Fh
  1863  07F7  01F8               	clrf	((__pbssCOMMON)+1)&07Fh
  1864  07F8  01F9               	clrf	((__pbssCOMMON)+2)&07Fh
  1865  07F9  01FA               	clrf	((__pbssCOMMON)+3)&07Fh
  1866  07FA  01FB               	clrf	((__pbssCOMMON)+4)&07Fh
  1867  07FB  01FC               	clrf	((__pbssCOMMON)+5)&07Fh
  1868  07FC  01FD               psect cinit,class=CODE,delta=2,merge=1
  1869                           global end_of_initialization,__end_of__initialization
  1870                           
  1871                           ;End of C runtime variable initialization code
  1872                           
  1873                           end_of_initialization:
  1874  07FD                     __end_of__initialization:
  1875  07FD                     movlb 0
  1876  07FD  0020               ljmp _main	;jump to C main() function
  1877  07FE  3187  2F55         psect	cstackCOMMON,class=COMMON,space=1,noexec
  1878                           global __pcstackCOMMON
  1879                           __pcstackCOMMON:
  1880  0070                     ?_PIN_MANAGER_Initialize:	; 1 bytes @ 0x0
  1881  0070                     ??_PIN_MANAGER_Initialize:	; 1 bytes @ 0x0
  1882  0070                     ?_OSCILLATOR_Initialize:	; 1 bytes @ 0x0
  1883  0070                     ??_OSCILLATOR_Initialize:	; 1 bytes @ 0x0
  1884  0070                     ?_WDT_Initialize:	; 1 bytes @ 0x0
  1885  0070                     ??_WDT_Initialize:	; 1 bytes @ 0x0
  1886  0070                     ?_PWM1_Initialize:	; 1 bytes @ 0x0
  1887  0070                     ??_PWM1_Initialize:	; 1 bytes @ 0x0
  1888  0070                     ?_TMR2_Initialize:	; 1 bytes @ 0x0
  1889  0070                     ??_TMR2_Initialize:	; 1 bytes @ 0x0
  1890  0070                     ?_ADC_Initialize:	; 1 bytes @ 0x0
  1891  0070                     ??_ADC_Initialize:	; 1 bytes @ 0x0
  1892  0070                     ?_ADC_SelectChannel:	; 1 bytes @ 0x0
  1893  0070                     ??_ADC_SelectChannel:	; 1 bytes @ 0x0
  1894  0070                     ?_PWM1_LoadDutyValue:	; 1 bytes @ 0x0
  1895  0070                     ?_ADC_StartConversion:	; 1 bytes @ 0x0
  1896  0070                     ??_ADC_StartConversion:	; 1 bytes @ 0x0
  1897  0070                     ?_ADC_IsConversionDone:	; 1 bytes @ 0x0
  1898  0070                     ??_ADC_IsConversionDone:	; 1 bytes @ 0x0
  1899  0070                     ?_SYSTEM_Initialize:	; 1 bytes @ 0x0
  1900  0070                     ??_SYSTEM_Initialize:	; 1 bytes @ 0x0
  1901  0070                     ?_main:	; 1 bytes @ 0x0
  1902  0070                     	global	?_ADC_GetConversionResult
  1903                           ?_ADC_GetConversionResult:	; 2 bytes @ 0x0
  1904  0070                     	global	?___wmul
  1905                           ?___wmul:	; 2 bytes @ 0x0
  1906  0070                     	global	PWM1_LoadDutyValue@dutyValue
  1907                           PWM1_LoadDutyValue@dutyValue:	; 2 bytes @ 0x0
  1908  0070                     	global	___wmul@multiplier
  1909                           ___wmul@multiplier:	; 2 bytes @ 0x0
  1910  0070                     	ds	1
  1911  0070                     	global	ADC_SelectChannel@channel
  1912                           ADC_SelectChannel@channel:	; 1 bytes @ 0x1
  1913  0071                     	ds	1
  1914  0071                     ??_PWM1_LoadDutyValue:	; 1 bytes @ 0x2
  1915  0072                     ??_ADC_GetConversionResult:	; 1 bytes @ 0x2
  1916  0072                     	global	___wmul@multiplicand
  1917                           ___wmul@multiplicand:	; 2 bytes @ 0x2
  1918  0072                     	ds	2
  1919  0072                     ??___wmul:	; 1 bytes @ 0x4
  1920  0074                     	global	___wmul@product
  1921                           ___wmul@product:	; 2 bytes @ 0x4
  1922  0074                     	ds	2
  1923  0074                     ??_main:	; 1 bytes @ 0x6
  1924  0076                     	ds	2
  1925  0076                     ;!
  1926                           ;!Data Sizes:
  1927                           ;!    Strings     0
  1928                           ;!    Constant    0
  1929                           ;!    Data        0
  1930                           ;!    BSS         6
  1931                           ;!    Persistent  0
  1932                           ;!    Stack       0
  1933                           ;!
  1934                           ;!Auto Spaces:
  1935                           ;!    Space          Size  Autos    Used
  1936                           ;!    COMMON           14      8      14
  1937                           ;!    BANK0            80      0       0
  1938                           ;!    BANK1            80      0       0
  1939                           ;!    BANK2            80      0       0
  1940                           ;!    BANK3            80      0       0
  1941                           ;!    BANK4            80      0       0
  1942                           ;!    BANK5            80      0       0
  1943                           ;!    BANK6            80      0       0
  1944                           ;!    BANK7            80      0       0
  1945                           ;!    BANK8            80      0       0
  1946                           ;!    BANK9            80      0       0
  1947                           ;!    BANK10           80      0       0
  1948                           ;!    BANK11           80      0       0
  1949                           ;!    BANK12           48      0       0
  1950                           
  1951                           ;!
  1952                           ;!Pointer List with Targets:
  1953                           ;!
  1954                           ;!    None.
  1955                           
  1956                           
  1957                           ;!
  1958                           ;!Critical Paths under _main in COMMON
  1959                           ;!
  1960                           ;!    _main->___wmul
  1961                           ;!
  1962                           ;!Critical Paths under _main in BANK0
  1963                           ;!
  1964                           ;!    None.
  1965                           ;!
  1966                           ;!Critical Paths under _main in BANK1
  1967                           ;!
  1968                           ;!    None.
  1969                           ;!
  1970                           ;!Critical Paths under _main in BANK2
  1971                           ;!
  1972                           ;!    None.
  1973                           ;!
  1974                           ;!Critical Paths under _main in BANK3
  1975                           ;!
  1976                           ;!    None.
  1977                           ;!
  1978                           ;!Critical Paths under _main in BANK4
  1979                           ;!
  1980                           ;!    None.
  1981                           ;!
  1982                           ;!Critical Paths under _main in BANK5
  1983                           ;!
  1984                           ;!    None.
  1985                           ;!
  1986                           ;!Critical Paths under _main in BANK6
  1987                           ;!
  1988                           ;!    None.
  1989                           ;!
  1990                           ;!Critical Paths under _main in BANK7
  1991                           ;!
  1992                           ;!    None.
  1993                           ;!
  1994                           ;!Critical Paths under _main in BANK8
  1995                           ;!
  1996                           ;!    None.
  1997                           ;!
  1998                           ;!Critical Paths under _main in BANK9
  1999                           ;!
  2000                           ;!    None.
  2001                           ;!
  2002                           ;!Critical Paths under _main in BANK10
  2003                           ;!
  2004                           ;!    None.
  2005                           ;!
  2006                           ;!Critical Paths under _main in BANK11
  2007                           ;!
  2008                           ;!    None.
  2009                           ;!
  2010                           ;!Critical Paths under _main in BANK12
  2011                           ;!
  2012                           ;!    None.
  2013                           
  2014 ;;
  2015 ;;Main: autosize = 0, tempsize = 2, incstack = 0, save=0
  2016 ;;
  2017                           
  2018                           ;!
  2019                           ;!Call Graph Tables:
  2020                           ;!
  2021                           ;! ---------------------------------------------------------------------------------
  2022                           ;! (Depth) Function   	        Calls       Base Space   Used Autos Params    Refs
  2023                           ;! ---------------------------------------------------------------------------------
  2024                           ;! (0) _main                                                 2     2      0     455
  2025                           ;!                                              6 COMMON     2     2      0
  2026                           ;!            _ADC_GetConversionResult
  2027                           ;!               _ADC_IsConversionDone
  2028                           ;!                  _ADC_SelectChannel
  2029                           ;!                _ADC_StartConversion
  2030                           ;!                 _PWM1_LoadDutyValue
  2031                           ;!                  _SYSTEM_Initialize
  2032                           ;!                             ___wmul
  2033                           ;! ---------------------------------------------------------------------------------
  2034                           ;! (1) ___wmul                                               6     2      4     244
  2035                           ;!                                              0 COMMON     6     2      4
  2036                           ;! ---------------------------------------------------------------------------------
  2037                           ;! (1) _SYSTEM_Initialize                                    0     0      0       0
  2038                           ;!                     _ADC_Initialize
  2039                           ;!              _OSCILLATOR_Initialize
  2040                           ;!             _PIN_MANAGER_Initialize
  2041                           ;!                    _PWM1_Initialize
  2042                           ;!                    _TMR2_Initialize
  2043                           ;!                     _WDT_Initialize
  2044                           ;! ---------------------------------------------------------------------------------
  2045                           ;! (2) _WDT_Initialize                                       0     0      0       0
  2046                           ;! ---------------------------------------------------------------------------------
  2047                           ;! (2) _TMR2_Initialize                                      0     0      0       0
  2048                           ;! ---------------------------------------------------------------------------------
  2049                           ;! (2) _PWM1_Initialize                                      0     0      0       0
  2050                           ;! ---------------------------------------------------------------------------------
  2051                           ;! (2) _PIN_MANAGER_Initialize                               0     0      0       0
  2052                           ;! ---------------------------------------------------------------------------------
  2053                           ;! (2) _OSCILLATOR_Initialize                                0     0      0       0
  2054                           ;! ---------------------------------------------------------------------------------
  2055                           ;! (2) _ADC_Initialize                                       0     0      0       0
  2056                           ;! ---------------------------------------------------------------------------------
  2057                           ;! (1) _PWM1_LoadDutyValue                                   4     2      2     196
  2058                           ;!                                              0 COMMON     4     2      2
  2059                           ;! ---------------------------------------------------------------------------------
  2060                           ;! (1) _ADC_StartConversion                                  0     0      0       0
  2061                           ;! ---------------------------------------------------------------------------------
  2062                           ;! (1) _ADC_SelectChannel                                    2     2      0      15
  2063                           ;!                                              0 COMMON     2     2      0
  2064                           ;! ---------------------------------------------------------------------------------
  2065                           ;! (1) _ADC_IsConversionDone                                 0     0      0       0
  2066                           ;! ---------------------------------------------------------------------------------
  2067                           ;! (1) _ADC_GetConversionResult                              2     0      2       0
  2068                           ;!                                              0 COMMON     2     0      2
  2069                           ;! ---------------------------------------------------------------------------------
  2070                           ;! Estimated maximum stack depth 2
  2071                           ;! ---------------------------------------------------------------------------------
  2072                           ;!
  2073                           ;! Call Graph Graphs:
  2074                           ;!
  2075                           ;! _main (ROOT)
  2076                           ;!   _ADC_GetConversionResult
  2077                           ;!   _ADC_IsConversionDone
  2078                           ;!   _ADC_SelectChannel
  2079                           ;!   _ADC_StartConversion
  2080                           ;!   _PWM1_LoadDutyValue
  2081                           ;!   _SYSTEM_Initialize
  2082                           ;!     _ADC_Initialize
  2083                           ;!     _OSCILLATOR_Initialize
  2084                           ;!     _PIN_MANAGER_Initialize
  2085                           ;!     _PWM1_Initialize
  2086                           ;!     _TMR2_Initialize
  2087                           ;!     _WDT_Initialize
  2088                           ;!   ___wmul
  2089                           ;!
  2090                           
  2091                           ;! Address spaces:
  2092                           
  2093                           ;!Name               Size   Autos  Total    Cost      Usage
  2094                           ;!BIGRAM             3F0      0       0       0        0.0%
  2095                           ;!NULL                 0      0       0       0        0.0%
  2096                           ;!CODE                 0      0       0       0        0.0%
  2097                           ;!BITCOMMON            E      0       0       1        0.0%
  2098                           ;!BITSFR0              0      0       0       1        0.0%
  2099                           ;!SFR0                 0      0       0       1        0.0%
  2100                           ;!COMMON               E      8       E       2      100.0%
  2101                           ;!BITSFR1              0      0       0       2        0.0%
  2102                           ;!SFR1                 0      0       0       2        0.0%
  2103                           ;!BITSFR2              0      0       0       3        0.0%
  2104                           ;!SFR2                 0      0       0       3        0.0%
  2105                           ;!STACK                0      0       0       3        0.0%
  2106                           ;!BITBANK0            50      0       0       4        0.0%
  2107                           ;!BITSFR3              0      0       0       4        0.0%
  2108                           ;!SFR3                 0      0       0       4        0.0%
  2109                           ;!BANK0               50      0       0       5        0.0%
  2110                           ;!BITSFR4              0      0       0       5        0.0%
  2111                           ;!SFR4                 0      0       0       5        0.0%
  2112                           ;!BITBANK1            50      0       0       6        0.0%
  2113                           ;!BITSFR5              0      0       0       6        0.0%
  2114                           ;!SFR5                 0      0       0       6        0.0%
  2115                           ;!BANK1               50      0       0       7        0.0%
  2116                           ;!BITSFR6              0      0       0       7        0.0%
  2117                           ;!SFR6                 0      0       0       7        0.0%
  2118                           ;!BITBANK2            50      0       0       8        0.0%
  2119                           ;!BITSFR7              0      0       0       8        0.0%
  2120                           ;!SFR7                 0      0       0       8        0.0%
  2121                           ;!BANK2               50      0       0       9        0.0%
  2122                           ;!BITSFR8              0      0       0       9        0.0%
  2123                           ;!SFR8                 0      0       0       9        0.0%
  2124                           ;!BITBANK3            50      0       0      10        0.0%
  2125                           ;!BITSFR9              0      0       0      10        0.0%
  2126                           ;!SFR9                 0      0       0      10        0.0%
  2127                           ;!BANK3               50      0       0      11        0.0%
  2128                           ;!BITSFR10             0      0       0      11        0.0%
  2129                           ;!SFR10                0      0       0      11        0.0%
  2130                           ;!BITBANK4            50      0       0      12        0.0%
  2131                           ;!BITSFR11             0      0       0      12        0.0%
  2132                           ;!SFR11                0      0       0      12        0.0%
  2133                           ;!BANK4               50      0       0      13        0.0%
  2134                           ;!BITSFR12             0      0       0      13        0.0%
  2135                           ;!SFR12                0      0       0      13        0.0%
  2136                           ;!BITBANK5            50      0       0      14        0.0%
  2137                           ;!BITSFR13             0      0       0      14        0.0%
  2138                           ;!SFR13                0      0       0      14        0.0%
  2139                           ;!BANK5               50      0       0      15        0.0%
  2140                           ;!BITSFR14             0      0       0      15        0.0%
  2141                           ;!SFR14                0      0       0      15        0.0%
  2142                           ;!BITBANK6            50      0       0      16        0.0%
  2143                           ;!BITSFR15             0      0       0      16        0.0%
  2144                           ;!SFR15                0      0       0      16        0.0%
  2145                           ;!BANK6               50      0       0      17        0.0%
  2146                           ;!BITSFR16             0      0       0      17        0.0%
  2147                           ;!SFR16                0      0       0      17        0.0%
  2148                           ;!BITBANK7            50      0       0      18        0.0%
  2149                           ;!BITSFR17             0      0       0      18        0.0%
  2150                           ;!SFR17                0      0       0      18        0.0%
  2151                           ;!BANK7               50      0       0      19        0.0%
  2152                           ;!BITSFR18             0      0       0      19        0.0%
  2153                           ;!SFR18                0      0       0      19        0.0%
  2154                           ;!BITSFR19             0      0       0      20        0.0%
  2155                           ;!SFR19                0      0       0      20        0.0%
  2156                           ;!ABS                  0      0       E      20        0.0%
  2157                           ;!BITBANK8            50      0       0      21        0.0%
  2158                           ;!BITSFR20             0      0       0      21        0.0%
  2159                           ;!SFR20                0      0       0      21        0.0%
  2160                           ;!BANK8               50      0       0      22        0.0%
  2161                           ;!BITSFR21             0      0       0      22        0.0%
  2162                           ;!SFR21                0      0       0      22        0.0%
  2163                           ;!BITBANK9            50      0       0      23        0.0%
  2164                           ;!BITSFR22             0      0       0      23        0.0%
  2165                           ;!SFR22                0      0       0      23        0.0%
  2166                           ;!BANK9               50      0       0      24        0.0%
  2167                           ;!BITSFR23             0      0       0      24        0.0%
  2168                           ;!SFR23                0      0       0      24        0.0%
  2169                           ;!BITBANK10           50      0       0      25        0.0%
  2170                           ;!BITSFR24             0      0       0      25        0.0%
  2171                           ;!SFR24                0      0       0      25        0.0%
  2172                           ;!BANK10              50      0       0      26        0.0%
  2173                           ;!BITSFR25             0      0       0      26        0.0%
  2174                           ;!SFR25                0      0       0      26        0.0%
  2175                           ;!BITBANK11           50      0       0      27        0.0%
  2176                           ;!BITSFR26             0      0       0      27        0.0%
  2177                           ;!SFR26                0      0       0      27        0.0%
  2178                           ;!BANK11              50      0       0      28        0.0%
  2179                           ;!BITSFR27             0      0       0      28        0.0%
  2180                           ;!SFR27                0      0       0      28        0.0%
  2181                           ;!BITBANK12           30      0       0      29        0.0%
  2182                           ;!BITSFR28             0      0       0      29        0.0%
  2183                           ;!SFR28                0      0       0      29        0.0%
  2184                           ;!BANK12              30      0       0      30        0.0%
  2185                           ;!BITSFR29             0      0       0      30        0.0%
  2186                           ;!SFR29                0      0       0      30        0.0%
  2187                           ;!BITSFR30             0      0       0      31        0.0%
  2188                           ;!SFR30                0      0       0      31        0.0%
  2189                           ;!DATA                 0      0       E      31        0.0%
  2190                           ;!BITSFR31             0      0       0      32        0.0%
  2191                           ;!SFR31                0      0       0      32        0.0%
  2192                           
  2193                           	global	_main
  2194                           
  2195 ;; *************** function _main *****************
  2196 ;; Defined at:
  2197 ;;		line 50 in file "main.c"
  2198 ;; Parameters:    Size  Location     Type
  2199 ;;		None
  2200 ;; Auto vars:     Size  Location     Type
  2201 ;;		None
  2202 ;; Return value:  Size  Location     Type
  2203 ;;                  1    wreg      void 
  2204 ;; Registers used:
  2205 ;;		wreg, status,2, status,0, pclath, cstack
  2206 ;; Tracked objects:
  2207 ;;		On entry : B1F/0
  2208 ;;		On exit  : 0/0
  2209 ;;		Unchanged: 0/0
  2210 ;; Data sizes:     COMMON   BANK0   BANK1   BANK2   BANK3   BANK4   BANK5   BANK6   BANK7   BANK8   BANK9  BANK10  BANK1
       1  BANK12
  2211 ;;      Params:         0       0       0       0       0       0       0       0       0       0       0       0       
       0       0
  2212 ;;      Locals:         0       0       0       0       0       0       0       0       0       0       0       0       
       0       0
  2213 ;;      Temps:          2       0       0       0       0       0       0       0       0       0       0       0       
       0       0
  2214 ;;      Totals:         2       0       0       0       0       0       0       0       0       0       0       0       
       0       0
  2215 ;;Total ram usage:        2 bytes
  2216 ;; Hardware stack levels required when called:    2
  2217 ;; This function calls:
  2218 ;;		_ADC_GetConversionResult
  2219 ;;		_ADC_IsConversionDone
  2220 ;;		_ADC_SelectChannel
  2221 ;;		_ADC_StartConversion
  2222 ;;		_PWM1_LoadDutyValue
  2223 ;;		_SYSTEM_Initialize
  2224 ;;		___wmul
  2225 ;; This function is called by:
  2226 ;;		Startup code after reset
  2227 ;; This function uses a non-reentrant model
  2228 ;;
  2229                           psect	maintext,global,class=CODE,delta=2,merge=1,split=1,group=0
  2230                           	file	"main.c"
  2231                           	line	50
  2232                           global __pmaintext
  2233                           __pmaintext:	;psect for function _main
  2234  0755                     psect	maintext
  2235                           	file	"main.c"
  2236                           	line	50
  2237                           	global	__size_of_main
  2238                           	__size_of_main	equ	__end_of_main-_main
  2239  00A2                     	
  2240                           _main:	
  2241  0755                     ;incstack = 0
  2242                           	opt	stack 14
  2243                           ; Regs used in _main: [wreg+status,2+status,0+pclath+cstack]
  2244                           	line	52
  2245                           	
  2246                           l790:	
  2247  0755                     ;main.c: 52:     SYSTEM_Initialize();
  2248                           	fcall	_SYSTEM_Initialize
  2249  0755  3186  26F6  3187   	line	53
  2250                           ;main.c: 53:     ADC_SelectChannel(channel_AN3);
  2251                           	movlw	low(03h)
  2252  0758  3003               	fcall	_ADC_SelectChannel
  2253  0759  3186  26E9  3187   	line	54
  2254                           ;main.c: 54:     PWM1_LoadDutyValue(DUTYC);
  2255                           	movf	(_DUTYC+1),w
  2256  075C  087B               	movwf	(PWM1_LoadDutyValue@dutyValue+1)
  2257  075D  00F1               	movf	(_DUTYC),w
  2258  075E  087A               	movwf	(PWM1_LoadDutyValue@dutyValue)
  2259  075F  00F0               	fcall	_PWM1_LoadDutyValue
  2260  0760  3187  271D  3187   	goto	l792
  2261  0763  2F64               	line	56
  2262                           ;main.c: 56:     while (1)
  2263                           	
  2264                           l58:	
  2265  0764                     	line	58
  2266                           	
  2267                           l792:	
  2268  0764                     ;main.c: 57:     {;main.c: 58:         _delay((unsigned long)((1000)*(2000000/4000.0)));
                                 
  2269                           	opt asmopt_push
  2270                           opt asmopt_off
  2271                           movlw  3
  2272  0764  3003               movwf	((??_main+0)+0+1),f
  2273  0765  00F7               movlw	138
  2274  0766  308A               movwf	((??_main+0)+0),f
  2275  0767  00F6               	movlw	86
  2276  0768  3056               u257:
  2277  0769                     decfsz	wreg
  2278  0769  0B89               	goto	u257
  2279  076A  2F69               	decfsz	((??_main+0)+0),f
  2280  076B  0BF6               	goto	u257
  2281  076C  2F69               	decfsz	((??_main+0)+0+1),f
  2282  076D  0BF7               	goto	u257
  2283  076E  2F69               opt asmopt_pop
  2284                           
  2285                           	line	59
  2286                           	
  2287                           l794:	
  2288  076F                     ;main.c: 59:         if (!LATCbits.LATC0){
  2289                           	movlb 2	; select bank2
  2290  076F  0022               	btfsc	(270)^0100h,0	;volatile
  2291  0770  180E               	goto	u191
  2292  0771  2F73               	goto	u190
  2293  0772  2F74               u191:
  2294  0773                     	goto	l814
  2295  0773  2FC5               u190:
  2296  0774                     	line	60
  2297                           	
  2298                           l796:	
  2299  0774                     ;main.c: 60:             ADC_StartConversion();
  2300                           	fcall	_ADC_StartConversion
  2301  0774  3186  26B3  3187   	line	61
  2302                           ;main.c: 61:             while(!ADC_IsConversionDone());
  2303                           	goto	l798
  2304  0777  2F79               	
  2305                           l61:	
  2306  0778                     	goto	l798
  2307  0778  2F79               	
  2308                           l60:	
  2309  0779                     	
  2310                           l798:	
  2311  0779                     	fcall	_ADC_IsConversionDone
  2312  0779  3186  26C7  3187   	xorlw	low(0)&0ffh
  2313  077C  3A00               	skipnz
  2314  077D  1903               	goto	u201
  2315  077E  2F80               	goto	u200
  2316  077F  2F81               u201:
  2317  0780                     	goto	l798
  2318  0780  2F79               u200:
  2319  0781                     	goto	l800
  2320  0781  2F82               	
  2321                           l62:	
  2322  0782                     	line	62
  2323                           	
  2324                           l800:	
  2325  0782                     ;main.c: 62:             ValoreADC = ADC_GetConversionResult();
  2326                           	fcall	_ADC_GetConversionResult
  2327  0782  3186  26C0  3187   	movf	(1+(?_ADC_GetConversionResult)),w
  2328  0785  0871               	movwf	(_ValoreADC+1)
  2329  0786  00F9               	movf	(0+(?_ADC_GetConversionResult)),w
  2330  0787  0870               	movwf	(_ValoreADC)
  2331  0788  00F8               	line	63
  2332                           	
  2333                           l802:	
  2334  0789                     ;main.c: 63:             Temp = (ValoreADC - 82) / 4;
  2335                           	movf	(_ValoreADC),w
  2336  0789  0878               	addlw	0AEh
  2337  078A  3EAE               	movwf	(??_main+0)+0
  2338  078B  00F6               	movlw	0FFh
  2339  078C  30FF               	addwfc	(_ValoreADC+1),w
  2340  078D  3D79               	movwf	1+(??_main+0)+0
  2341  078E  00F7               	lsrf	(??_main+0)+1,f
  2342  078F  36F7               	rrf	(??_main+0)+0,f
  2343  0790  0CF6               	lsrf	(??_main+0)+1,f
  2344  0791  36F7               	rrf	(??_main+0)+0,f
  2345  0792  0CF6               	movf	0+(??_main+0)+0,w
  2346  0793  0876               	movwf	(_Temp)
  2347  0794  00FC               	movf	1+(??_main+0)+0,w
  2348  0795  0877               	movwf	(_Temp+1)
  2349  0796  00FD               	line	65
  2350                           	
  2351                           l804:	
  2352  0797                     ;main.c: 65:             if (Temp > 60){
  2353                           	movlw	0
  2354  0797  3000               	subwf	(_Temp+1),w
  2355  0798  027D               	movlw	03Dh
  2356  0799  303D               	skipnz
  2357  079A  1903               	subwf	(_Temp),w
  2358  079B  027C               	skipc
  2359  079C  1C03               	goto	u211
  2360  079D  2F9F               	goto	u210
  2361  079E  2FA0               u211:
  2362  079F                     	goto	l808
  2363  079F  2FA5               u210:
  2364  07A0                     	line	66
  2365                           	
  2366                           l806:	
  2367  07A0                     ;main.c: 66:                 DUTYC = 0xFFFF;
  2368                           	movlw	0FFh
  2369  07A0  30FF               	movwf	(_DUTYC)
  2370  07A1  00FA               	movlw	0FFh
  2371  07A2  30FF               	movwf	((_DUTYC))+1
  2372  07A3  00FB               	line	67
  2373                           ;main.c: 67:             }
  2374                           	goto	l826
  2375  07A4  2FEC               	line	68
  2376                           ;main.c: 68:             else if (Temp < 30){
  2377                           	
  2378                           l63:	
  2379  07A5                     	
  2380                           l808:	
  2381  07A5                     	movlw	0
  2382  07A5  3000               	subwf	(_Temp+1),w
  2383  07A6  027D               	movlw	01Eh
  2384  07A7  301E               	skipnz
  2385  07A8  1903               	subwf	(_Temp),w
  2386  07A9  027C               	skipnc
  2387  07AA  1803               	goto	u221
  2388  07AB  2FAD               	goto	u220
  2389  07AC  2FAE               u221:
  2390  07AD                     	goto	l812
  2391  07AD  2FB1               u220:
  2392  07AE                     	line	69
  2393                           	
  2394                           l810:	
  2395  07AE                     ;main.c: 69:                 DUTYC = 0x0000;
  2396                           	clrf	(_DUTYC)
  2397  07AE  01FA               	clrf	(_DUTYC+1)
  2398  07AF  01FB               	line	70
  2399                           ;main.c: 70:             }
  2400                           	goto	l826
  2401  07B0  2FEC               	line	71
  2402                           ;main.c: 71:             else {
  2403                           	
  2404                           l65:	
  2405  07B1                     	line	72
  2406                           	
  2407                           l812:	
  2408  07B1                     ;main.c: 72:                 DUTYC = (34 * Temp) - 1024;
  2409                           	movf	(_Temp+1),w
  2410  07B1  087D               	movwf	(___wmul@multiplier+1)
  2411  07B2  00F1               	movf	(_Temp),w
  2412  07B3  087C               	movwf	(___wmul@multiplier)
  2413  07B4  00F0               	movlw	022h
  2414  07B5  3022               	movwf	(___wmul@multiplicand)
  2415  07B6  00F2               	movlw	0
  2416  07B7  3000               	movwf	((___wmul@multiplicand))+1
  2417  07B8  00F3               	fcall	___wmul
  2418  07B9  3187  2733  3187   	movf	(0+(?___wmul)),w
  2419  07BC  0870               	addlw	0
  2420  07BD  3E00               	movwf	(_DUTYC)
  2421  07BE  00FA               	movlw	0FCh
  2422  07BF  30FC               	addwfc	(1+(?___wmul)),w
  2423  07C0  3D71               	movwf	1+(_DUTYC)
  2424  07C1  00FB               	goto	l826
  2425  07C2  2FEC               	line	73
  2426                           ;main.c: 73:             }
  2427                           	
  2428                           l66:	
  2429  07C3                     	goto	l826
  2430  07C3  2FEC               	
  2431                           l64:	
  2432  07C4                     	line	74
  2433                           ;main.c: 74:         }
  2434                           	goto	l826
  2435  07C4  2FEC               	line	75
  2436                           ;main.c: 75:         else {
  2437                           	
  2438                           l59:	
  2439  07C5                     	line	76
  2440                           	
  2441                           l814:	
  2442  07C5                     ;main.c: 76:             ADC_StartConversion();
  2443                           	fcall	_ADC_StartConversion
  2444  07C5  3186  26B3  3187   	line	77
  2445                           ;main.c: 77:             while(!ADC_IsConversionDone());
  2446                           	goto	l816
  2447  07C8  2FCA               	
  2448                           l69:	
  2449  07C9                     	goto	l816
  2450  07C9  2FCA               	
  2451                           l68:	
  2452  07CA                     	
  2453                           l816:	
  2454  07CA                     	fcall	_ADC_IsConversionDone
  2455  07CA  3186  26C7  3187   	xorlw	low(0)&0ffh
  2456  07CD  3A00               	skipnz
  2457  07CE  1903               	goto	u231
  2458  07CF  2FD1               	goto	u230
  2459  07D0  2FD2               u231:
  2460  07D1                     	goto	l816
  2461  07D1  2FCA               u230:
  2462  07D2                     	goto	l818
  2463  07D2  2FD3               	
  2464                           l70:	
  2465  07D3                     	line	78
  2466                           	
  2467                           l818:	
  2468  07D3                     ;main.c: 78:             ValoreADC = ADC_GetConversionResult();
  2469                           	fcall	_ADC_GetConversionResult
  2470  07D3  3186  26C0  3187   	movf	(1+(?_ADC_GetConversionResult)),w
  2471  07D6  0871               	movwf	(_ValoreADC+1)
  2472  07D7  00F9               	movf	(0+(?_ADC_GetConversionResult)),w
  2473  07D8  0870               	movwf	(_ValoreADC)
  2474  07D9  00F8               	line	79
  2475                           	
  2476                           l820:	
  2477  07DA                     ;main.c: 79:             if (ValoreADC <= 307){
  2478                           	movlw	01h
  2479  07DA  3001               	subwf	(_ValoreADC+1),w
  2480  07DB  0279               	movlw	034h
  2481  07DC  3034               	skipnz
  2482  07DD  1903               	subwf	(_ValoreADC),w
  2483  07DE  0278               	skipnc
  2484  07DF  1803               	goto	u241
  2485  07E0  2FE2               	goto	u240
  2486  07E1  2FE3               u241:
  2487  07E2                     	goto	l824
  2488  07E2  2FE6               u240:
  2489  07E3                     	line	80
  2490                           	
  2491                           l822:	
  2492  07E3                     ;main.c: 80:                 DUTYC = 0x0000;
  2493                           	clrf	(_DUTYC)
  2494  07E3  01FA               	clrf	(_DUTYC+1)
  2495  07E4  01FB               	line	81
  2496                           ;main.c: 81:             }
  2497                           	goto	l826
  2498  07E5  2FEC               	line	82
  2499                           ;main.c: 82:             else {
  2500                           	
  2501                           l71:	
  2502  07E6                     	line	83
  2503                           	
  2504                           l824:	
  2505  07E6                     ;main.c: 83:                 DUTYC = ValoreADC;
  2506                           	movf	(_ValoreADC+1),w
  2507  07E6  0879               	movwf	(_DUTYC+1)
  2508  07E7  00FB               	movf	(_ValoreADC),w
  2509  07E8  0878               	movwf	(_DUTYC)
  2510  07E9  00FA               	goto	l826
  2511  07EA  2FEC               	line	84
  2512                           ;main.c: 84:             }
  2513                           	
  2514                           l72:	
  2515  07EB                     	goto	l826
  2516  07EB  2FEC               	line	85
  2517                           ;main.c: 85:         }
  2518                           	
  2519                           l67:	
  2520  07EC                     	line	86
  2521                           	
  2522                           l826:	
  2523  07EC                     ;main.c: 86:         PWM1_LoadDutyValue(DUTYC);
  2524                           	movf	(_DUTYC+1),w
  2525  07EC  087B               	movwf	(PWM1_LoadDutyValue@dutyValue+1)
  2526  07ED  00F1               	movf	(_DUTYC),w
  2527  07EE  087A               	movwf	(PWM1_LoadDutyValue@dutyValue)
  2528  07EF  00F0               	fcall	_PWM1_LoadDutyValue
  2529  07F0  3187  271D  3187   	goto	l792
  2530  07F3  2F64               	line	97
  2531                           ;main.c: 97:     }
  2532                           	
  2533                           l73:	
  2534  07F4                     	goto	l792
  2535  07F4  2F64               	
  2536                           l74:	
  2537  07F5                     	line	98
  2538                           	
  2539                           l75:	
  2540  07F5                     	global	start
  2541                           	ljmp	start
  2542  07F5  3180  2802         	opt stack 0
  2543                           GLOBAL	__end_of_main
  2544                           	__end_of_main:
  2545  07F7                     	signat	_main,89
  2546                           	global	___wmul
  2547                           
  2548 ;; *************** function ___wmul *****************
  2549 ;; Defined at:
  2550 ;;		line 15 in file "C:\Program Files (x86)\Microchip\xc8\v2.00\pic\sources\c99\common\Umul16.c"
  2551 ;; Parameters:    Size  Location     Type
  2552 ;;  multiplier      2    0[COMMON] unsigned int 
  2553 ;;  multiplicand    2    2[COMMON] unsigned int 
  2554 ;; Auto vars:     Size  Location     Type
  2555 ;;  product         2    4[COMMON] unsigned int 
  2556 ;; Return value:  Size  Location     Type
  2557 ;;                  2    0[COMMON] unsigned int 
  2558 ;; Registers used:
  2559 ;;		wreg, status,2, status,0
  2560 ;; Tracked objects:
  2561 ;;		On entry : 0/0
  2562 ;;		On exit  : 0/0
  2563 ;;		Unchanged: 0/0
  2564 ;; Data sizes:     COMMON   BANK0   BANK1   BANK2   BANK3   BANK4   BANK5   BANK6   BANK7   BANK8   BANK9  BANK10  BANK1
       1  BANK12
  2565 ;;      Params:         4       0       0       0       0       0       0       0       0       0       0       0       
       0       0
  2566 ;;      Locals:         2       0       0       0       0       0       0       0       0       0       0       0       
       0       0
  2567 ;;      Temps:          0       0       0       0       0       0       0       0       0       0       0       0       
       0       0
  2568 ;;      Totals:         6       0       0       0       0       0       0       0       0       0       0       0       
       0       0
  2569 ;;Total ram usage:        6 bytes
  2570 ;; Hardware stack levels used:    1
  2571 ;; This function calls:
  2572 ;;		Nothing
  2573 ;; This function is called by:
  2574 ;;		_main
  2575 ;; This function uses a non-reentrant model
  2576 ;;
  2577                           psect	text1,local,class=CODE,delta=2,merge=1,group=1
  2578                           	file	"C:\Program Files (x86)\Microchip\xc8\v2.00\pic\sources\c99\common\Umul16.c"
  2579                           	line	15
  2580                           global __ptext1
  2581                           __ptext1:	;psect for function ___wmul
  2582  0733                     psect	text1
  2583                           	file	"C:\Program Files (x86)\Microchip\xc8\v2.00\pic\sources\c99\common\Umul16.c"
  2584                           	line	15
  2585                           	global	__size_of___wmul
  2586                           	__size_of___wmul	equ	__end_of___wmul-___wmul
  2587  0022                     	
  2588                           ___wmul:	
  2589  0733                     ;incstack = 0
  2590                           	opt	stack 15
  2591                           ; Regs used in ___wmul: [wreg+status,2+status,0]
  2592                           	line	43
  2593                           	
  2594                           l776:	
  2595  0733                     	clrf	(___wmul@product)
  2596  0733  01F4               	clrf	(___wmul@product+1)
  2597  0734  01F5               	goto	l778
  2598  0735  2F36               	line	44
  2599                           	
  2600                           l184:	
  2601  0736                     	line	45
  2602                           	
  2603                           l778:	
  2604  0736                     	btfss	(___wmul@multiplier),(0)&7
  2605  0736  1C70               	goto	u151
  2606  0737  2F39               	goto	u150
  2607  0738  2F3A               u151:
  2608  0739                     	goto	l185
  2609  0739  2F3E               u150:
  2610  073A                     	line	46
  2611                           	
  2612                           l780:	
  2613  073A                     	movf	(___wmul@multiplicand),w
  2614  073A  0872               	addwf	(___wmul@product),f
  2615  073B  07F4               	movf	(___wmul@multiplicand+1),w
  2616  073C  0873               	addwfc	(___wmul@product+1),f
  2617  073D  3DF5               	
  2618                           l185:	
  2619  073E                     	line	47
  2620                           	movlw	01h
  2621  073E  3001               	
  2622                           u165:
  2623  073F                     	lslf	(___wmul@multiplicand),f
  2624  073F  35F2               	rlf	(___wmul@multiplicand+1),f
  2625  0740  0DF3               	decfsz	wreg,f
  2626  0741  0B89               	goto	u165
  2627  0742  2F3F               	line	48
  2628                           	
  2629                           l782:	
  2630  0743                     	movlw	01h
  2631  0743  3001               	
  2632                           u175:
  2633  0744                     	lsrf	(___wmul@multiplier+1),f
  2634  0744  36F1               	rrf	(___wmul@multiplier),f
  2635  0745  0CF0               	decfsz	wreg,f
  2636  0746  0B89               	goto	u175
  2637  0747  2F44               	line	49
  2638                           	
  2639                           l784:	
  2640  0748                     	movf	((___wmul@multiplier)),w
  2641  0748  0870               iorwf	((___wmul@multiplier+1)),w
  2642  0749  0471               	btfss	status,2
  2643  074A  1D03               	goto	u181
  2644  074B  2F4D               	goto	u180
  2645  074C  2F4E               u181:
  2646  074D                     	goto	l778
  2647  074D  2F36               u180:
  2648  074E                     	goto	l786
  2649  074E  2F4F               	
  2650                           l186:	
  2651  074F                     	line	52
  2652                           	
  2653                           l786:	
  2654  074F                     	movf	(___wmul@product+1),w
  2655  074F  0875               	movwf	(?___wmul+1)
  2656  0750  00F1               	movf	(___wmul@product),w
  2657  0751  0874               	movwf	(?___wmul)
  2658  0752  00F0               	goto	l187
  2659  0753  2F54               	
  2660                           l788:	
  2661  0754                     	line	53
  2662                           	
  2663                           l187:	
  2664  0754                     	return
  2665  0754  0008               	opt stack 0
  2666                           GLOBAL	__end_of___wmul
  2667                           	__end_of___wmul:
  2668  0755                     	signat	___wmul,8314
  2669                           	global	_SYSTEM_Initialize
  2670                           
  2671 ;; *************** function _SYSTEM_Initialize *****************
  2672 ;; Defined at:
  2673 ;;		line 50 in file "mcc_generated_files/mcc.c"
  2674 ;; Parameters:    Size  Location     Type
  2675 ;;		None
  2676 ;; Auto vars:     Size  Location     Type
  2677 ;;		None
  2678 ;; Return value:  Size  Location     Type
  2679 ;;                  1    wreg      void 
  2680 ;; Registers used:
  2681 ;;		wreg, status,2, status,0, pclath, cstack
  2682 ;; Tracked objects:
  2683 ;;		On entry : 0/0
  2684 ;;		On exit  : 0/0
  2685 ;;		Unchanged: 0/0
  2686 ;; Data sizes:     COMMON   BANK0   BANK1   BANK2   BANK3   BANK4   BANK5   BANK6   BANK7   BANK8   BANK9  BANK10  BANK1
       1  BANK12
  2687 ;;      Params:         0       0       0       0       0       0       0       0       0       0       0       0       
       0       0
  2688 ;;      Locals:         0       0       0       0       0       0       0       0       0       0       0       0       
       0       0
  2689 ;;      Temps:          0       0       0       0       0       0       0       0       0       0       0       0       
       0       0
  2690 ;;      Totals:         0       0       0       0       0       0       0       0       0       0       0       0       
       0       0
  2691 ;;Total ram usage:        0 bytes
  2692 ;; Hardware stack levels used:    1
  2693 ;; Hardware stack levels required when called:    1
  2694 ;; This function calls:
  2695 ;;		_ADC_Initialize
  2696 ;;		_OSCILLATOR_Initialize
  2697 ;;		_PIN_MANAGER_Initialize
  2698 ;;		_PWM1_Initialize
  2699 ;;		_TMR2_Initialize
  2700 ;;		_WDT_Initialize
  2701 ;; This function is called by:
  2702 ;;		_main
  2703 ;; This function uses a non-reentrant model
  2704 ;;
  2705                           psect	text2,local,class=CODE,delta=2,merge=1,group=0
  2706                           	file	"mcc_generated_files/mcc.c"
  2707                           	line	50
  2708                           global __ptext2
  2709                           __ptext2:	;psect for function _SYSTEM_Initialize
  2710  06F6                     psect	text2
  2711                           	file	"mcc_generated_files/mcc.c"
  2712                           	line	50
  2713                           	global	__size_of_SYSTEM_Initialize
  2714                           	__size_of_SYSTEM_Initialize	equ	__end_of_SYSTEM_Initialize-_SYSTEM_Initialize
  2715  0013                     	
  2716                           _SYSTEM_Initialize:	
  2717  06F6                     ;incstack = 0
  2718                           	opt	stack 14
  2719                           ; Regs used in _SYSTEM_Initialize: [wreg+status,2+status,0+pclath+cstack]
  2720                           	line	53
  2721                           	
  2722                           l668:	
  2723  06F6                     ;mcc_generated_files/mcc.c: 53:     PIN_MANAGER_Initialize();
  2724                           	fcall	_PIN_MANAGER_Initialize
  2725  06F6  3187  2709  3186   	line	54
  2726                           ;mcc_generated_files/mcc.c: 54:     OSCILLATOR_Initialize();
  2727                           	fcall	_OSCILLATOR_Initialize
  2728  06F9  3186  26E0  3186   	line	55
  2729                           ;mcc_generated_files/mcc.c: 55:     WDT_Initialize();
  2730                           	fcall	_WDT_Initialize
  2731  06FC  3186  26B6  3186   	line	56
  2732                           ;mcc_generated_files/mcc.c: 56:     PWM1_Initialize();
  2733                           	fcall	_PWM1_Initialize
  2734  06FF  3186  26BA  3186   	line	57
  2735                           ;mcc_generated_files/mcc.c: 57:     TMR2_Initialize();
  2736                           	fcall	_TMR2_Initialize
  2737  0702  3186  26CF  3186   	line	58
  2738                           ;mcc_generated_files/mcc.c: 58:     ADC_Initialize();
  2739                           	fcall	_ADC_Initialize
  2740  0705  3186  26D7  3186   	line	59
  2741                           	
  2742                           l25:	
  2743  0708                     	return
  2744  0708  0008               	opt stack 0
  2745                           GLOBAL	__end_of_SYSTEM_Initialize
  2746                           	__end_of_SYSTEM_Initialize:
  2747  0709                     	signat	_SYSTEM_Initialize,89
  2748                           	global	_WDT_Initialize
  2749                           
  2750 ;; *************** function _WDT_Initialize *****************
  2751 ;; Defined at:
  2752 ;;		line 73 in file "mcc_generated_files/mcc.c"
  2753 ;; Parameters:    Size  Location     Type
  2754 ;;		None
  2755 ;; Auto vars:     Size  Location     Type
  2756 ;;		None
  2757 ;; Return value:  Size  Location     Type
  2758 ;;                  1    wreg      void 
  2759 ;; Registers used:
  2760 ;;		wreg
  2761 ;; Tracked objects:
  2762 ;;		On entry : 0/0
  2763 ;;		On exit  : 0/0
  2764 ;;		Unchanged: 0/0
  2765 ;; Data sizes:     COMMON   BANK0   BANK1   BANK2   BANK3   BANK4   BANK5   BANK6   BANK7   BANK8   BANK9  BANK10  BANK1
       1  BANK12
  2766 ;;      Params:         0       0       0       0       0       0       0       0       0       0       0       0       
       0       0
  2767 ;;      Locals:         0       0       0       0       0       0       0       0       0       0       0       0       
       0       0
  2768 ;;      Temps:          0       0       0       0       0       0       0       0       0       0       0       0       
       0       0
  2769 ;;      Totals:         0       0       0       0       0       0       0       0       0       0       0       0       
       0       0
  2770 ;;Total ram usage:        0 bytes
  2771 ;; Hardware stack levels used:    1
  2772 ;; This function calls:
  2773 ;;		Nothing
  2774 ;; This function is called by:
  2775 ;;		_SYSTEM_Initialize
  2776 ;; This function uses a non-reentrant model
  2777 ;;
  2778                           psect	text3,local,class=CODE,delta=2,merge=1,group=0
  2779                           	line	73
  2780                           global __ptext3
  2781                           __ptext3:	;psect for function _WDT_Initialize
  2782  06B6                     psect	text3
  2783                           	file	"mcc_generated_files/mcc.c"
  2784                           	line	73
  2785                           	global	__size_of_WDT_Initialize
  2786                           	__size_of_WDT_Initialize	equ	__end_of_WDT_Initialize-_WDT_Initialize
  2787  0004                     	
  2788                           _WDT_Initialize:	
  2789  06B6                     ;incstack = 0
  2790                           	opt	stack 14
  2791                           ; Regs used in _WDT_Initialize: [wreg]
  2792                           	line	76
  2793                           	
  2794                           l644:	
  2795  06B6                     ;mcc_generated_files/mcc.c: 76:     WDTCON = 0x16;
  2796                           	movlw	low(016h)
  2797  06B6  3016               	movlb 1	; select bank1
  2798  06B7  0021               	movwf	(151)^080h	;volatile
  2799  06B8  0097               	line	77
  2800                           	
  2801                           l31:	
  2802  06B9                     	return
  2803  06B9  0008               	opt stack 0
  2804                           GLOBAL	__end_of_WDT_Initialize
  2805                           	__end_of_WDT_Initialize:
  2806  06BA                     	signat	_WDT_Initialize,89
  2807                           	global	_TMR2_Initialize
  2808                           
  2809 ;; *************** function _TMR2_Initialize *****************
  2810 ;; Defined at:
  2811 ;;		line 62 in file "mcc_generated_files/tmr2.c"
  2812 ;; Parameters:    Size  Location     Type
  2813 ;;		None
  2814 ;; Auto vars:     Size  Location     Type
  2815 ;;		None
  2816 ;; Return value:  Size  Location     Type
  2817 ;;                  1    wreg      void 
  2818 ;; Registers used:
  2819 ;;		wreg, status,2
  2820 ;; Tracked objects:
  2821 ;;		On entry : 0/0
  2822 ;;		On exit  : 0/0
  2823 ;;		Unchanged: 0/0
  2824 ;; Data sizes:     COMMON   BANK0   BANK1   BANK2   BANK3   BANK4   BANK5   BANK6   BANK7   BANK8   BANK9  BANK10  BANK1
       1  BANK12
  2825 ;;      Params:         0       0       0       0       0       0       0       0       0       0       0       0       
       0       0
  2826 ;;      Locals:         0       0       0       0       0       0       0       0       0       0       0       0       
       0       0
  2827 ;;      Temps:          0       0       0       0       0       0       0       0       0       0       0       0       
       0       0
  2828 ;;      Totals:         0       0       0       0       0       0       0       0       0       0       0       0       
       0       0
  2829 ;;Total ram usage:        0 bytes
  2830 ;; Hardware stack levels used:    1
  2831 ;; This function calls:
  2832 ;;		Nothing
  2833 ;; This function is called by:
  2834 ;;		_SYSTEM_Initialize
  2835 ;; This function uses a non-reentrant model
  2836 ;;
  2837                           psect	text4,local,class=CODE,delta=2,merge=1,group=0
  2838                           	file	"mcc_generated_files/tmr2.c"
  2839                           	line	62
  2840                           global __ptext4
  2841                           __ptext4:	;psect for function _TMR2_Initialize
  2842  06CF                     psect	text4
  2843                           	file	"mcc_generated_files/tmr2.c"
  2844                           	line	62
  2845                           	global	__size_of_TMR2_Initialize
  2846                           	__size_of_TMR2_Initialize	equ	__end_of_TMR2_Initialize-_TMR2_Initialize
  2847  0008                     	
  2848                           _TMR2_Initialize:	
  2849  06CF                     ;incstack = 0
  2850                           	opt	stack 14
  2851                           ; Regs used in _TMR2_Initialize: [wreg+status,2]
  2852                           	line	67
  2853                           	
  2854                           l652:	
  2855  06CF                     ;mcc_generated_files/tmr2.c: 67:     PR2 = 0x13;
  2856                           	movlw	low(013h)
  2857  06CF  3013               	movlb 0	; select bank0
  2858  06D0  0020               	movwf	(27)	;volatile
  2859  06D1  009B               	line	70
  2860                           	
  2861                           l654:	
  2862  06D2                     ;mcc_generated_files/tmr2.c: 70:     TMR2 = 0x00;
  2863                           	clrf	(26)	;volatile
  2864  06D2  019A               	line	73
  2865                           	
  2866                           l656:	
  2867  06D3                     ;mcc_generated_files/tmr2.c: 73:     PIR1bits.TMR2IF = 0;
  2868                           	bcf	(17),1	;volatile
  2869  06D3  1091               	line	76
  2870                           	
  2871                           l658:	
  2872  06D4                     ;mcc_generated_files/tmr2.c: 76:     T2CON = 0x04;
  2873                           	movlw	low(04h)
  2874  06D4  3004               	movwf	(28)	;volatile
  2875  06D5  009C               	line	77
  2876                           	
  2877                           l150:	
  2878  06D6                     	return
  2879  06D6  0008               	opt stack 0
  2880                           GLOBAL	__end_of_TMR2_Initialize
  2881                           	__end_of_TMR2_Initialize:
  2882  06D7                     	signat	_TMR2_Initialize,89
  2883                           	global	_PWM1_Initialize
  2884                           
  2885 ;; *************** function _PWM1_Initialize *****************
  2886 ;; Defined at:
  2887 ;;		line 58 in file "mcc_generated_files/pwm1.c"
  2888 ;; Parameters:    Size  Location     Type
  2889 ;;		None
  2890 ;; Auto vars:     Size  Location     Type
  2891 ;;		None
  2892 ;; Return value:  Size  Location     Type
  2893 ;;                  1    wreg      void 
  2894 ;; Registers used:
  2895 ;;		wreg, status,2
  2896 ;; Tracked objects:
  2897 ;;		On entry : 0/0
  2898 ;;		On exit  : 0/0
  2899 ;;		Unchanged: 0/0
  2900 ;; Data sizes:     COMMON   BANK0   BANK1   BANK2   BANK3   BANK4   BANK5   BANK6   BANK7   BANK8   BANK9  BANK10  BANK1
       1  BANK12
  2901 ;;      Params:         0       0       0       0       0       0       0       0       0       0       0       0       
       0       0
  2902 ;;      Locals:         0       0       0       0       0       0       0       0       0       0       0       0       
       0       0
  2903 ;;      Temps:          0       0       0       0       0       0       0       0       0       0       0       0       
       0       0
  2904 ;;      Totals:         0       0       0       0       0       0       0       0       0       0       0       0       
       0       0
  2905 ;;Total ram usage:        0 bytes
  2906 ;; Hardware stack levels used:    1
  2907 ;; This function calls:
  2908 ;;		Nothing
  2909 ;; This function is called by:
  2910 ;;		_SYSTEM_Initialize
  2911 ;; This function uses a non-reentrant model
  2912 ;;
  2913                           psect	text5,local,class=CODE,delta=2,merge=1,group=0
  2914                           	file	"mcc_generated_files/pwm1.c"
  2915                           	line	58
  2916                           global __ptext5
  2917                           __ptext5:	;psect for function _PWM1_Initialize
  2918  06BA                     psect	text5
  2919                           	file	"mcc_generated_files/pwm1.c"
  2920                           	line	58
  2921                           	global	__size_of_PWM1_Initialize
  2922                           	__size_of_PWM1_Initialize	equ	__end_of_PWM1_Initialize-_PWM1_Initialize
  2923  0006                     	
  2924                           _PWM1_Initialize:	
  2925  06BA                     ;incstack = 0
  2926                           	opt	stack 14
  2927                           ; Regs used in _PWM1_Initialize: [wreg+status,2]
  2928                           	line	62
  2929                           	
  2930                           l646:	
  2931  06BA                     ;mcc_generated_files/pwm1.c: 62:     PWM1CON = 0xC0;
  2932                           	movlw	low(0C0h)
  2933  06BA  30C0               	movlb 12	; select bank12
  2934  06BB  002C               	movwf	(1555)^0600h	;volatile
  2935  06BC  0093               	line	65
  2936                           	
  2937                           l648:	
  2938  06BD                     ;mcc_generated_files/pwm1.c: 65:     PWM1DCH = 0x00;
  2939                           	clrf	(1554)^0600h	;volatile
  2940  06BD  0192               	line	68
  2941                           	
  2942                           l650:	
  2943  06BE                     ;mcc_generated_files/pwm1.c: 68:     PWM1DCL = 0x00;
  2944                           	clrf	(1553)^0600h	;volatile
  2945  06BE  0191               	line	70
  2946                           	
  2947                           l178:	
  2948  06BF                     	return
  2949  06BF  0008               	opt stack 0
  2950                           GLOBAL	__end_of_PWM1_Initialize
  2951                           	__end_of_PWM1_Initialize:
  2952  06C0                     	signat	_PWM1_Initialize,89
  2953                           	global	_PIN_MANAGER_Initialize
  2954                           
  2955 ;; *************** function _PIN_MANAGER_Initialize *****************
  2956 ;; Defined at:
  2957 ;;		line 57 in file "mcc_generated_files/pin_manager.c"
  2958 ;; Parameters:    Size  Location     Type
  2959 ;;		None
  2960 ;; Auto vars:     Size  Location     Type
  2961 ;;		None
  2962 ;; Return value:  Size  Location     Type
  2963 ;;                  1    wreg      void 
  2964 ;; Registers used:
  2965 ;;		wreg, status,2
  2966 ;; Tracked objects:
  2967 ;;		On entry : 0/0
  2968 ;;		On exit  : 0/0
  2969 ;;		Unchanged: 0/0
  2970 ;; Data sizes:     COMMON   BANK0   BANK1   BANK2   BANK3   BANK4   BANK5   BANK6   BANK7   BANK8   BANK9  BANK10  BANK1
       1  BANK12
  2971 ;;      Params:         0       0       0       0       0       0       0       0       0       0       0       0       
       0       0
  2972 ;;      Locals:         0       0       0       0       0       0       0       0       0       0       0       0       
       0       0
  2973 ;;      Temps:          0       0       0       0       0       0       0       0       0       0       0       0       
       0       0
  2974 ;;      Totals:         0       0       0       0       0       0       0       0       0       0       0       0       
       0       0
  2975 ;;Total ram usage:        0 bytes
  2976 ;; Hardware stack levels used:    1
  2977 ;; This function calls:
  2978 ;;		Nothing
  2979 ;; This function is called by:
  2980 ;;		_SYSTEM_Initialize
  2981 ;; This function uses a non-reentrant model
  2982 ;;
  2983                           psect	text6,local,class=CODE,delta=2,merge=1,group=0
  2984                           	file	"mcc_generated_files/pin_manager.c"
  2985                           	line	57
  2986                           global __ptext6
  2987                           __ptext6:	;psect for function _PIN_MANAGER_Initialize
  2988  0709                     psect	text6
  2989                           	file	"mcc_generated_files/pin_manager.c"
  2990                           	line	57
  2991                           	global	__size_of_PIN_MANAGER_Initialize
  2992                           	__size_of_PIN_MANAGER_Initialize	equ	__end_of_PIN_MANAGER_Initialize-_PIN_MANAGER_Initi
                                 alize
  2993  0014                     	
  2994                           _PIN_MANAGER_Initialize:	
  2995  0709                     ;incstack = 0
  2996                           	opt	stack 14
  2997                           ; Regs used in _PIN_MANAGER_Initialize: [wreg+status,2]
  2998                           	line	62
  2999                           	
  3000                           l624:	
  3001  0709                     ;mcc_generated_files/pin_manager.c: 62:     LATA = 0x00;
  3002                           	movlb 2	; select bank2
  3003  0709  0022               	clrf	(268)^0100h	;volatile
  3004  070A  018C               	line	63
  3005                           ;mcc_generated_files/pin_manager.c: 63:     LATC = 0x00;
  3006                           	clrf	(270)^0100h	;volatile
  3007  070B  018E               	line	68
  3008                           	
  3009                           l626:	
  3010  070C                     ;mcc_generated_files/pin_manager.c: 68:     TRISA = 0x30;
  3011                           	movlw	low(030h)
  3012  070C  3030               	movlb 1	; select bank1
  3013  070D  0021               	movwf	(140)^080h	;volatile
  3014  070E  008C               	line	69
  3015                           	
  3016                           l628:	
  3017  070F                     ;mcc_generated_files/pin_manager.c: 69:     TRISC = 0x1F;
  3018                           	movlw	low(01Fh)
  3019  070F  301F               	movwf	(142)^080h	;volatile
  3020  0710  008E               	line	74
  3021                           	
  3022                           l630:	
  3023  0711                     ;mcc_generated_files/pin_manager.c: 74:     ANSELC = 0x0E;
  3024                           	movlw	low(0Eh)
  3025  0711  300E               	movlb 3	; select bank3
  3026  0712  0023               	movwf	(398)^0180h	;volatile
  3027  0713  008E               	line	75
  3028                           	
  3029                           l632:	
  3030  0714                     ;mcc_generated_files/pin_manager.c: 75:     ANSELA = 0x10;
  3031                           	movlw	low(010h)
  3032  0714  3010               	movwf	(396)^0180h	;volatile
  3033  0715  008C               	line	80
  3034                           ;mcc_generated_files/pin_manager.c: 80:     WPUA = 0x00;
  3035                           	movlb 4	; select bank4
  3036  0716  0024               	clrf	(524)^0200h	;volatile
  3037  0717  018C               	line	81
  3038                           	
  3039                           l634:	
  3040  0718                     ;mcc_generated_files/pin_manager.c: 81:     OPTION_REGbits.nWPUEN = 1;
  3041                           	movlb 1	; select bank1
  3042  0718  0021               	bsf	(149)^080h,7	;volatile
  3043  0719  1795               	line	90
  3044                           ;mcc_generated_files/pin_manager.c: 90:     APFCON = 0x00;
  3045                           	movlb 2	; select bank2
  3046  071A  0022               	clrf	(285)^0100h	;volatile
  3047  071B  019D               	line	97
  3048                           	
  3049                           l134:	
  3050  071C                     	return
  3051  071C  0008               	opt stack 0
  3052                           GLOBAL	__end_of_PIN_MANAGER_Initialize
  3053                           	__end_of_PIN_MANAGER_Initialize:
  3054  071D                     	signat	_PIN_MANAGER_Initialize,89
  3055                           	global	_OSCILLATOR_Initialize
  3056                           
  3057 ;; *************** function _OSCILLATOR_Initialize *****************
  3058 ;; Defined at:
  3059 ;;		line 61 in file "mcc_generated_files/mcc.c"
  3060 ;; Parameters:    Size  Location     Type
  3061 ;;		None
  3062 ;; Auto vars:     Size  Location     Type
  3063 ;;		None
  3064 ;; Return value:  Size  Location     Type
  3065 ;;                  1    wreg      void 
  3066 ;; Registers used:
  3067 ;;		wreg, status,2
  3068 ;; Tracked objects:
  3069 ;;		On entry : 0/0
  3070 ;;		On exit  : 0/0
  3071 ;;		Unchanged: 0/0
  3072 ;; Data sizes:     COMMON   BANK0   BANK1   BANK2   BANK3   BANK4   BANK5   BANK6   BANK7   BANK8   BANK9  BANK10  BANK1
       1  BANK12
  3073 ;;      Params:         0       0       0       0       0       0       0       0       0       0       0       0       
       0       0
  3074 ;;      Locals:         0       0       0       0       0       0       0       0       0       0       0       0       
       0       0
  3075 ;;      Temps:          0       0       0       0       0       0       0       0       0       0       0       0       
       0       0
  3076 ;;      Totals:         0       0       0       0       0       0       0       0       0       0       0       0       
       0       0
  3077 ;;Total ram usage:        0 bytes
  3078 ;; Hardware stack levels used:    1
  3079 ;; This function calls:
  3080 ;;		Nothing
  3081 ;; This function is called by:
  3082 ;;		_SYSTEM_Initialize
  3083 ;; This function uses a non-reentrant model
  3084 ;;
  3085                           psect	text7,local,class=CODE,delta=2,merge=1,group=0
  3086                           	file	"mcc_generated_files/mcc.c"
  3087                           	line	61
  3088                           global __ptext7
  3089                           __ptext7:	;psect for function _OSCILLATOR_Initialize
  3090  06E0                     psect	text7
  3091                           	file	"mcc_generated_files/mcc.c"
  3092                           	line	61
  3093                           	global	__size_of_OSCILLATOR_Initialize
  3094                           	__size_of_OSCILLATOR_Initialize	equ	__end_of_OSCILLATOR_Initialize-_OSCILLATOR_Initiali
                                 ze
  3095  0009                     	
  3096                           _OSCILLATOR_Initialize:	
  3097  06E0                     ;incstack = 0
  3098                           	opt	stack 14
  3099                           ; Regs used in _OSCILLATOR_Initialize: [wreg+status,2]
  3100                           	line	64
  3101                           	
  3102                           l636:	
  3103  06E0                     ;mcc_generated_files/mcc.c: 64:     OSCCON = 0x36;
  3104                           	movlw	low(036h)
  3105  06E0  3036               	movlb 1	; select bank1
  3106  06E1  0021               	movwf	(153)^080h	;volatile
  3107  06E2  0099               	line	66
  3108                           	
  3109                           l638:	
  3110  06E3                     ;mcc_generated_files/mcc.c: 66:     OSCTUNE = 0x00;
  3111                           	clrf	(152)^080h	;volatile
  3112  06E3  0198               	line	68
  3113                           	
  3114                           l640:	
  3115  06E4                     ;mcc_generated_files/mcc.c: 68:     ACTCON = 0x00;
  3116                           	movlb 7	; select bank7
  3117  06E4  0027               	clrf	(923)^0380h	;volatile
  3118  06E5  019B               	line	70
  3119                           	
  3120                           l642:	
  3121  06E6                     ;mcc_generated_files/mcc.c: 70:     BORCON = 0x00;
  3122                           	movlb 2	; select bank2
  3123  06E6  0022               	clrf	(278)^0100h	;volatile
  3124  06E7  0196               	line	71
  3125                           	
  3126                           l28:	
  3127  06E8                     	return
  3128  06E8  0008               	opt stack 0
  3129                           GLOBAL	__end_of_OSCILLATOR_Initialize
  3130                           	__end_of_OSCILLATOR_Initialize:
  3131  06E9                     	signat	_OSCILLATOR_Initialize,89
  3132                           	global	_ADC_Initialize
  3133                           
  3134 ;; *************** function _ADC_Initialize *****************
  3135 ;; Defined at:
  3136 ;;		line 65 in file "mcc_generated_files/adc.c"
  3137 ;; Parameters:    Size  Location     Type
  3138 ;;		None
  3139 ;; Auto vars:     Size  Location     Type
  3140 ;;		None
  3141 ;; Return value:  Size  Location     Type
  3142 ;;                  1    wreg      void 
  3143 ;; Registers used:
  3144 ;;		wreg, status,2
  3145 ;; Tracked objects:
  3146 ;;		On entry : 0/0
  3147 ;;		On exit  : 0/0
  3148 ;;		Unchanged: 0/0
  3149 ;; Data sizes:     COMMON   BANK0   BANK1   BANK2   BANK3   BANK4   BANK5   BANK6   BANK7   BANK8   BANK9  BANK10  BANK1
       1  BANK12
  3150 ;;      Params:         0       0       0       0       0       0       0       0       0       0       0       0       
       0       0
  3151 ;;      Locals:         0       0       0       0       0       0       0       0       0       0       0       0       
       0       0
  3152 ;;      Temps:          0       0       0       0       0       0       0       0       0       0       0       0       
       0       0
  3153 ;;      Totals:         0       0       0       0       0       0       0       0       0       0       0       0       
       0       0
  3154 ;;Total ram usage:        0 bytes
  3155 ;; Hardware stack levels used:    1
  3156 ;; This function calls:
  3157 ;;		Nothing
  3158 ;; This function is called by:
  3159 ;;		_SYSTEM_Initialize
  3160 ;; This function uses a non-reentrant model
  3161 ;;
  3162                           psect	text8,local,class=CODE,delta=2,merge=1,group=0
  3163                           	file	"mcc_generated_files/adc.c"
  3164                           	line	65
  3165                           global __ptext8
  3166                           __ptext8:	;psect for function _ADC_Initialize
  3167  06D7                     psect	text8
  3168                           	file	"mcc_generated_files/adc.c"
  3169                           	line	65
  3170                           	global	__size_of_ADC_Initialize
  3171                           	__size_of_ADC_Initialize	equ	__end_of_ADC_Initialize-_ADC_Initialize
  3172  0009                     	
  3173                           _ADC_Initialize:	
  3174  06D7                     ;incstack = 0
  3175                           	opt	stack 14
  3176                           ; Regs used in _ADC_Initialize: [wreg+status,2]
  3177                           	line	70
  3178                           	
  3179                           l660:	
  3180  06D7                     ;mcc_generated_files/adc.c: 70:     ADCON0 = 0x01;
  3181                           	movlw	low(01h)
  3182  06D7  3001               	movlb 1	; select bank1
  3183  06D8  0021               	movwf	(157)^080h	;volatile
  3184  06D9  009D               	line	73
  3185                           ;mcc_generated_files/adc.c: 73:     ADCON1 = 0xD0;
  3186                           	movlw	low(0D0h)
  3187  06DA  30D0               	movwf	(158)^080h	;volatile
  3188  06DB  009E               	line	76
  3189                           	
  3190                           l662:	
  3191  06DC                     ;mcc_generated_files/adc.c: 76:     ADCON2 = 0x00;
  3192                           	clrf	(159)^080h	;volatile
  3193  06DC  019F               	line	79
  3194                           	
  3195                           l664:	
  3196  06DD                     ;mcc_generated_files/adc.c: 79:     ADRESL = 0x00;
  3197                           	clrf	(155)^080h	;volatile
  3198  06DD  019B               	line	82
  3199                           	
  3200                           l666:	
  3201  06DE                     ;mcc_generated_files/adc.c: 82:     ADRESH = 0x00;
  3202                           	clrf	(156)^080h	;volatile
  3203  06DE  019C               	line	84
  3204                           	
  3205                           l92:	
  3206  06DF                     	return
  3207  06DF  0008               	opt stack 0
  3208                           GLOBAL	__end_of_ADC_Initialize
  3209                           	__end_of_ADC_Initialize:
  3210  06E0                     	signat	_ADC_Initialize,89
  3211                           	global	_PWM1_LoadDutyValue
  3212                           
  3213 ;; *************** function _PWM1_LoadDutyValue *****************
  3214 ;; Defined at:
  3215 ;;		line 72 in file "mcc_generated_files/pwm1.c"
  3216 ;; Parameters:    Size  Location     Type
  3217 ;;  dutyValue       2    0[COMMON] unsigned short 
  3218 ;; Auto vars:     Size  Location     Type
  3219 ;;		None
  3220 ;; Return value:  Size  Location     Type
  3221 ;;                  1    wreg      void 
  3222 ;; Registers used:
  3223 ;;		wreg, status,2, status,0
  3224 ;; Tracked objects:
  3225 ;;		On entry : 0/0
  3226 ;;		On exit  : 0/0
  3227 ;;		Unchanged: 0/0
  3228 ;; Data sizes:     COMMON   BANK0   BANK1   BANK2   BANK3   BANK4   BANK5   BANK6   BANK7   BANK8   BANK9  BANK10  BANK1
       1  BANK12
  3229 ;;      Params:         2       0       0       0       0       0       0       0       0       0       0       0       
       0       0
  3230 ;;      Locals:         0       0       0       0       0       0       0       0       0       0       0       0       
       0       0
  3231 ;;      Temps:          2       0       0       0       0       0       0       0       0       0       0       0       
       0       0
  3232 ;;      Totals:         4       0       0       0       0       0       0       0       0       0       0       0       
       0       0
  3233 ;;Total ram usage:        4 bytes
  3234 ;; Hardware stack levels used:    1
  3235 ;; This function calls:
  3236 ;;		Nothing
  3237 ;; This function is called by:
  3238 ;;		_main
  3239 ;; This function uses a non-reentrant model
  3240 ;;
  3241                           psect	text9,local,class=CODE,delta=2,merge=1,group=0
  3242                           	file	"mcc_generated_files/pwm1.c"
  3243                           	line	72
  3244                           global __ptext9
  3245                           __ptext9:	;psect for function _PWM1_LoadDutyValue
  3246  071D                     psect	text9
  3247                           	file	"mcc_generated_files/pwm1.c"
  3248                           	line	72
  3249                           	global	__size_of_PWM1_LoadDutyValue
  3250                           	__size_of_PWM1_LoadDutyValue	equ	__end_of_PWM1_LoadDutyValue-_PWM1_LoadDutyValue
  3251  0016                     	
  3252                           _PWM1_LoadDutyValue:	
  3253  071D                     ;incstack = 0
  3254                           	opt	stack 15
  3255                           ; Regs used in _PWM1_LoadDutyValue: [wreg+status,2+status,0]
  3256                           	line	75
  3257                           	
  3258                           l770:	
  3259  071D                     ;mcc_generated_files/pwm1.c: 72:  void PWM1_LoadDutyValue(uint16_t dutyValue);mcc_genera
                                 ted_files/pwm1.c: 73:  {;mcc_generated_files/pwm1.c: 75:      PWM1DCH = (dutyValue & 0x0
                                 3FC)>>2;
  3260                           	movf	(PWM1_LoadDutyValue@dutyValue+1),w
  3261  071D  0871               	movwf	(??_PWM1_LoadDutyValue+0)+0+1
  3262  071E  00F3               	movf	(PWM1_LoadDutyValue@dutyValue),w
  3263  071F  0870               	movwf	(??_PWM1_LoadDutyValue+0)+0
  3264  0720  00F2               	lsrf	(??_PWM1_LoadDutyValue+0)+1,f
  3265  0721  36F3               	rrf	(??_PWM1_LoadDutyValue+0)+0,f
  3266  0722  0CF2               	lsrf	(??_PWM1_LoadDutyValue+0)+1,f
  3267  0723  36F3               	rrf	(??_PWM1_LoadDutyValue+0)+0,f
  3268  0724  0CF2               	movf	0+(??_PWM1_LoadDutyValue+0)+0,w
  3269  0725  0872               	movlb 12	; select bank12
  3270  0726  002C               	movwf	(1554)^0600h	;volatile
  3271  0727  0092               	line	78
  3272                           ;mcc_generated_files/pwm1.c: 78:      PWM1DCL = (dutyValue & 0x0003)<<6;
  3273                           	movf	(PWM1_LoadDutyValue@dutyValue),w
  3274  0728  0870               	andlw	03h
  3275  0729  3903               	movwf	(??_PWM1_LoadDutyValue+0)+0
  3276  072A  00F2               	movlw	(06h)-1
  3277  072B  3005               u145:
  3278  072C                     	lslf	(??_PWM1_LoadDutyValue+0)+0,f
  3279  072C  35F2               	addlw	-1
  3280  072D  3EFF               	skipz
  3281  072E  1D03               	goto	u145
  3282  072F  2F2C               	lslf	(??_PWM1_LoadDutyValue+0)+0,w
  3283  0730  3572               	movwf	(1553)^0600h	;volatile
  3284  0731  0091               	line	79
  3285                           	
  3286                           l181:	
  3287  0732                     	return
  3288  0732  0008               	opt stack 0
  3289                           GLOBAL	__end_of_PWM1_LoadDutyValue
  3290                           	__end_of_PWM1_LoadDutyValue:
  3291  0733                     	signat	_PWM1_LoadDutyValue,4217
  3292                           	global	_ADC_StartConversion
  3293                           
  3294 ;; *************** function _ADC_StartConversion *****************
  3295 ;; Defined at:
  3296 ;;		line 94 in file "mcc_generated_files/adc.c"
  3297 ;; Parameters:    Size  Location     Type
  3298 ;;		None
  3299 ;; Auto vars:     Size  Location     Type
  3300 ;;		None
  3301 ;; Return value:  Size  Location     Type
  3302 ;;                  1    wreg      void 
  3303 ;; Registers used:
  3304 ;;		None
  3305 ;; Tracked objects:
  3306 ;;		On entry : 0/0
  3307 ;;		On exit  : 0/0
  3308 ;;		Unchanged: 0/0
  3309 ;; Data sizes:     COMMON   BANK0   BANK1   BANK2   BANK3   BANK4   BANK5   BANK6   BANK7   BANK8   BANK9  BANK10  BANK1
       1  BANK12
  3310 ;;      Params:         0       0       0       0       0       0       0       0       0       0       0       0       
       0       0
  3311 ;;      Locals:         0       0       0       0       0       0       0       0       0       0       0       0       
       0       0
  3312 ;;      Temps:          0       0       0       0       0       0       0       0       0       0       0       0       
       0       0
  3313 ;;      Totals:         0       0       0       0       0       0       0       0       0       0       0       0       
       0       0
  3314 ;;Total ram usage:        0 bytes
  3315 ;; Hardware stack levels used:    1
  3316 ;; This function calls:
  3317 ;;		Nothing
  3318 ;; This function is called by:
  3319 ;;		_main
  3320 ;; This function uses a non-reentrant model
  3321 ;;
  3322                           psect	text10,local,class=CODE,delta=2,merge=1,group=0
  3323                           	file	"mcc_generated_files/adc.c"
  3324                           	line	94
  3325                           global __ptext10
  3326                           __ptext10:	;psect for function _ADC_StartConversion
  3327  06B3                     psect	text10
  3328                           	file	"mcc_generated_files/adc.c"
  3329                           	line	94
  3330                           	global	__size_of_ADC_StartConversion
  3331                           	__size_of_ADC_StartConversion	equ	__end_of_ADC_StartConversion-_ADC_StartConversion
  3332  0003                     	
  3333                           _ADC_StartConversion:	
  3334  06B3                     ;incstack = 0
  3335                           	opt	stack 15
  3336                           ; Regs used in _ADC_StartConversion: []
  3337                           	line	97
  3338                           	
  3339                           l676:	
  3340  06B3                     ;mcc_generated_files/adc.c: 97:     ADCON0bits.GO_nDONE = 1;
  3341                           	movlb 1	; select bank1
  3342  06B3  0021               	bsf	(157)^080h,1	;volatile
  3343  06B4  149D               	line	98
  3344                           	
  3345                           l98:	
  3346  06B5                     	return
  3347  06B5  0008               	opt stack 0
  3348                           GLOBAL	__end_of_ADC_StartConversion
  3349                           	__end_of_ADC_StartConversion:
  3350  06B6                     	signat	_ADC_StartConversion,89
  3351                           	global	_ADC_SelectChannel
  3352                           
  3353 ;; *************** function _ADC_SelectChannel *****************
  3354 ;; Defined at:
  3355 ;;		line 86 in file "mcc_generated_files/adc.c"
  3356 ;; Parameters:    Size  Location     Type
  3357 ;;  channel         1    wreg     enum E2177
  3358 ;; Auto vars:     Size  Location     Type
  3359 ;;  channel         1    1[COMMON] enum E2177
  3360 ;; Return value:  Size  Location     Type
  3361 ;;                  1    wreg      void 
  3362 ;; Registers used:
  3363 ;;		wreg, status,2, status,0
  3364 ;; Tracked objects:
  3365 ;;		On entry : 0/0
  3366 ;;		On exit  : 0/0
  3367 ;;		Unchanged: 0/0
  3368 ;; Data sizes:     COMMON   BANK0   BANK1   BANK2   BANK3   BANK4   BANK5   BANK6   BANK7   BANK8   BANK9  BANK10  BANK1
       1  BANK12
  3369 ;;      Params:         0       0       0       0       0       0       0       0       0       0       0       0       
       0       0
  3370 ;;      Locals:         1       0       0       0       0       0       0       0       0       0       0       0       
       0       0
  3371 ;;      Temps:          1       0       0       0       0       0       0       0       0       0       0       0       
       0       0
  3372 ;;      Totals:         2       0       0       0       0       0       0       0       0       0       0       0       
       0       0
  3373 ;;Total ram usage:        2 bytes
  3374 ;; Hardware stack levels used:    1
  3375 ;; This function calls:
  3376 ;;		Nothing
  3377 ;; This function is called by:
  3378 ;;		_main
  3379 ;; This function uses a non-reentrant model
  3380 ;;
  3381                           psect	text11,local,class=CODE,delta=2,merge=1,group=0
  3382                           	line	86
  3383                           global __ptext11
  3384                           __ptext11:	;psect for function _ADC_SelectChannel
  3385  06E9                     psect	text11
  3386                           	file	"mcc_generated_files/adc.c"
  3387                           	line	86
  3388                           	global	__size_of_ADC_SelectChannel
  3389                           	__size_of_ADC_SelectChannel	equ	__end_of_ADC_SelectChannel-_ADC_SelectChannel
  3390  000D                     	
  3391                           _ADC_SelectChannel:	
  3392  06E9                     ;incstack = 0
  3393                           	opt	stack 15
  3394                           ; Regs used in _ADC_SelectChannel: [wreg+status,2+status,0]
  3395                           ;ADC_SelectChannel@channel stored from wreg
  3396                           	movwf	(ADC_SelectChannel@channel)
  3397  06E9  00F1               	line	89
  3398                           	
  3399                           l670:	
  3400  06EA                     ;mcc_generated_files/adc.c: 86: void ADC_SelectChannel(adc_channel_t channel);mcc_genera
                                 ted_files/adc.c: 87: {;mcc_generated_files/adc.c: 89:     ADCON0bits.CHS = channel;
  3401                           	movf	(ADC_SelectChannel@channel),w
  3402  06EA  0871               	movwf	(??_ADC_SelectChannel+0)+0
  3403  06EB  00F0               	rlf	(??_ADC_SelectChannel+0)+0,f
  3404  06EC  0DF0               	rlf	(??_ADC_SelectChannel+0)+0,f
  3405  06ED  0DF0               	movlb 1	; select bank1
  3406  06EE  0021               	movf	(157)^080h,w	;volatile
  3407  06EF  081D               	xorwf	(??_ADC_SelectChannel+0)+0,w
  3408  06F0  0670               	andlw	not (((1<<5)-1)<<2)
  3409  06F1  3983               	xorwf	(??_ADC_SelectChannel+0)+0,w
  3410  06F2  0670               	movwf	(157)^080h	;volatile
  3411  06F3  009D               	line	91
  3412                           	
  3413                           l672:	
  3414  06F4                     ;mcc_generated_files/adc.c: 91:     ADCON0bits.ADON = 1;
  3415                           	bsf	(157)^080h,0	;volatile
  3416  06F4  141D               	line	92
  3417                           	
  3418                           l95:	
  3419  06F5                     	return
  3420  06F5  0008               	opt stack 0
  3421                           GLOBAL	__end_of_ADC_SelectChannel
  3422                           	__end_of_ADC_SelectChannel:
  3423  06F6                     	signat	_ADC_SelectChannel,4217
  3424                           	global	_ADC_IsConversionDone
  3425                           
  3426 ;; *************** function _ADC_IsConversionDone *****************
  3427 ;; Defined at:
  3428 ;;		line 101 in file "mcc_generated_files/adc.c"
  3429 ;; Parameters:    Size  Location     Type
  3430 ;;		None
  3431 ;; Auto vars:     Size  Location     Type
  3432 ;;		None
  3433 ;; Return value:  Size  Location     Type
  3434 ;;                  1    wreg      _Bool 
  3435 ;; Registers used:
  3436 ;;		wreg, status,0
  3437 ;; Tracked objects:
  3438 ;;		On entry : 0/0
  3439 ;;		On exit  : 0/0
  3440 ;;		Unchanged: 0/0
  3441 ;; Data sizes:     COMMON   BANK0   BANK1   BANK2   BANK3   BANK4   BANK5   BANK6   BANK7   BANK8   BANK9  BANK10  BANK1
       1  BANK12
  3442 ;;      Params:         0       0       0       0       0       0       0       0       0       0       0       0       
       0       0
  3443 ;;      Locals:         0       0       0       0       0       0       0       0       0       0       0       0       
       0       0
  3444 ;;      Temps:          0       0       0       0       0       0       0       0       0       0       0       0       
       0       0
  3445 ;;      Totals:         0       0       0       0       0       0       0       0       0       0       0       0       
       0       0
  3446 ;;Total ram usage:        0 bytes
  3447 ;; Hardware stack levels used:    1
  3448 ;; This function calls:
  3449 ;;		Nothing
  3450 ;; This function is called by:
  3451 ;;		_main
  3452 ;; This function uses a non-reentrant model
  3453 ;;
  3454                           psect	text12,local,class=CODE,delta=2,merge=1,group=0
  3455                           	line	101
  3456                           global __ptext12
  3457                           __ptext12:	;psect for function _ADC_IsConversionDone
  3458  06C7                     psect	text12
  3459                           	file	"mcc_generated_files/adc.c"
  3460                           	line	101
  3461                           	global	__size_of_ADC_IsConversionDone
  3462                           	__size_of_ADC_IsConversionDone	equ	__end_of_ADC_IsConversionDone-_ADC_IsConversionDone

  3463  0008                     	
  3464                           _ADC_IsConversionDone:	
  3465  06C7                     ;incstack = 0
  3466                           	opt	stack 15
  3467                           ; Regs used in _ADC_IsConversionDone: [wreg+status,0]
  3468                           	line	104
  3469                           	
  3470                           l678:	
  3471  06C7                     ;mcc_generated_files/adc.c: 104:    return ((_Bool)(!ADCON0bits.GO_nDONE));
  3472                           	clrc
  3473  06C7  1003               	movlb 1	; select bank1
  3474  06C8  0021               	btfss	(157)^080h,1	;volatile
  3475  06C9  1C9D               	setc
  3476  06CA  1403               	movlw	0
  3477  06CB  3000               	addwfc	wreg,w
  3478  06CC  3D09               	goto	l101
  3479  06CD  2ECE               	
  3480                           l680:	
  3481  06CE                     	line	105
  3482                           	
  3483                           l101:	
  3484  06CE                     	return
  3485  06CE  0008               	opt stack 0
  3486                           GLOBAL	__end_of_ADC_IsConversionDone
  3487                           	__end_of_ADC_IsConversionDone:
  3488  06CF                     	signat	_ADC_IsConversionDone,89
  3489                           	global	_ADC_GetConversionResult
  3490                           
  3491 ;; *************** function _ADC_GetConversionResult *****************
  3492 ;; Defined at:
  3493 ;;		line 107 in file "mcc_generated_files/adc.c"
  3494 ;; Parameters:    Size  Location     Type
  3495 ;;		None
  3496 ;; Auto vars:     Size  Location     Type
  3497 ;;		None
  3498 ;; Return value:  Size  Location     Type
  3499 ;;                  2    0[COMMON] unsigned short 
  3500 ;; Registers used:
  3501 ;;		wreg
  3502 ;; Tracked objects:
  3503 ;;		On entry : 0/0
  3504 ;;		On exit  : 0/0
  3505 ;;		Unchanged: 0/0
  3506 ;; Data sizes:     COMMON   BANK0   BANK1   BANK2   BANK3   BANK4   BANK5   BANK6   BANK7   BANK8   BANK9  BANK10  BANK1
       1  BANK12
  3507 ;;      Params:         2       0       0       0       0       0       0       0       0       0       0       0       
       0       0
  3508 ;;      Locals:         0       0       0       0       0       0       0       0       0       0       0       0       
       0       0
  3509 ;;      Temps:          0       0       0       0       0       0       0       0       0       0       0       0       
       0       0
  3510 ;;      Totals:         2       0       0       0       0       0       0       0       0       0       0       0       
       0       0
  3511 ;;Total ram usage:        2 bytes
  3512 ;; Hardware stack levels used:    1
  3513 ;; This function calls:
  3514 ;;		Nothing
  3515 ;; This function is called by:
  3516 ;;		_main
  3517 ;; This function uses a non-reentrant model
  3518 ;;
  3519                           psect	text13,local,class=CODE,delta=2,merge=1,group=0
  3520                           	line	107
  3521                           global __ptext13
  3522                           __ptext13:	;psect for function _ADC_GetConversionResult
  3523  06C0                     psect	text13
  3524                           	file	"mcc_generated_files/adc.c"
  3525                           	line	107
  3526                           	global	__size_of_ADC_GetConversionResult
  3527                           	__size_of_ADC_GetConversionResult	equ	__end_of_ADC_GetConversionResult-_ADC_GetConversi
                                 onResult
  3528  0007                     	
  3529                           _ADC_GetConversionResult:	
  3530  06C0                     ;incstack = 0
  3531                           	opt	stack 15
  3532                           ; Regs used in _ADC_GetConversionResult: [wreg]
  3533                           	line	110
  3534                           	
  3535                           l772:	
  3536  06C0                     ;mcc_generated_files/adc.c: 110:     return ((adc_result_t)((ADRESH << 8) + ADRESL));
  3537                           	movlb 1	; select bank1
  3538  06C0  0021               	movf	(156)^080h,w	;volatile
  3539  06C1  081C               	movwf	(?_ADC_GetConversionResult+1)
  3540  06C2  00F1               	movf	(155)^080h,w	;volatile
  3541  06C3  081B               	movwf	(?_ADC_GetConversionResult)
  3542  06C4  00F0               	goto	l104
  3543  06C5  2EC6               	
  3544                           l774:	
  3545  06C6                     	line	111
  3546                           	
  3547                           l104:	
  3548  06C6                     	return
  3549  06C6  0008               	opt stack 0
  3550                           GLOBAL	__end_of_ADC_GetConversionResult
  3551                           	__end_of_ADC_GetConversionResult:
  3552  06C7                     	signat	_ADC_GetConversionResult,90
  3553                           global	___latbits
  3554                           ___latbits	equ	2
  3555  0002                     	global	btemp
  3556                           	btemp set 07Eh
  3557  007E                     
  3558                           	DABS	1,126,2	;btemp
  3559                           	global	wtemp0
  3560                           	wtemp0 set btemp+0
  3561  007E                     	end


Data Sizes:
    Strings     0
    Constant    0
    Data        0
    BSS         6
    Persistent  0
    Stack       0

Auto Spaces:
    Space          Size  Autos    Used
    COMMON           14      8      14
    BANK0            80      0       0
    BANK1            80      0       0
    BANK2            80      0       0
    BANK3            80      0       0
    BANK4            80      0       0
    BANK5            80      0       0
    BANK6            80      0       0
    BANK7            80      0       0
    BANK8            80      0       0
    BANK9            80      0       0
    BANK10           80      0       0
    BANK11           80      0       0
    BANK12           48      0       0

Pointer List with Targets:

    None.

Critical Paths under _main in COMMON

    _main->___wmul

Critical Paths under _main in BANK0

    None.

Critical Paths under _main in BANK1

    None.

Critical Paths under _main in BANK2

    None.

Critical Paths under _main in BANK3

    None.

Critical Paths under _main in BANK4

    None.

Critical Paths under _main in BANK5

    None.

Critical Paths under _main in BANK6

    None.

Critical Paths under _main in BANK7

    None.

Critical Paths under _main in BANK8

    None.

Critical Paths under _main in BANK9

    None.

Critical Paths under _main in BANK10

    None.

Critical Paths under _main in BANK11

    None.

Critical Paths under _main in BANK12

    None.

Call Graph Tables:

 ---------------------------------------------------------------------------------
 (Depth) Function   	        Calls       Base Space   Used Autos Params    Refs
 ---------------------------------------------------------------------------------
 (0) _main                                                 2     2      0     455
                                              6 COMMON     2     2      0
            _ADC_GetConversionResult
               _ADC_IsConversionDone
                  _ADC_SelectChannel
                _ADC_StartConversion
                 _PWM1_LoadDutyValue
                  _SYSTEM_Initialize
                             ___wmul
 ---------------------------------------------------------------------------------
 (1) ___wmul                                               6     2      4     244
                                              0 COMMON     6     2      4
 ---------------------------------------------------------------------------------
 (1) _SYSTEM_Initialize                                    0     0      0       0
                     _ADC_Initialize
              _OSCILLATOR_Initialize
             _PIN_MANAGER_Initialize
                    _PWM1_Initialize
                    _TMR2_Initialize
                     _WDT_Initialize
 ---------------------------------------------------------------------------------
 (2) _WDT_Initialize                                       0     0      0       0
 ---------------------------------------------------------------------------------
 (2) _TMR2_Initialize                                      0     0      0       0
 ---------------------------------------------------------------------------------
 (2) _PWM1_Initialize                                      0     0      0       0
 ---------------------------------------------------------------------------------
 (2) _PIN_MANAGER_Initialize                               0     0      0       0
 ---------------------------------------------------------------------------------
 (2) _OSCILLATOR_Initialize                                0     0      0       0
 ---------------------------------------------------------------------------------
 (2) _ADC_Initialize                                       0     0      0       0
 ---------------------------------------------------------------------------------
 (1) _PWM1_LoadDutyValue                                   4     2      2     196
                                              0 COMMON     4     2      2
 ---------------------------------------------------------------------------------
 (1) _ADC_StartConversion                                  0     0      0       0
 ---------------------------------------------------------------------------------
 (1) _ADC_SelectChannel                                    2     2      0      15
                                              0 COMMON     2     2      0
 ---------------------------------------------------------------------------------
 (1) _ADC_IsConversionDone                                 0     0      0       0
 ---------------------------------------------------------------------------------
 (1) _ADC_GetConversionResult                              2     0      2       0
                                              0 COMMON     2     0      2
 ---------------------------------------------------------------------------------
 Estimated maximum stack depth 2
 ---------------------------------------------------------------------------------

 Call Graph Graphs:

 _main (ROOT)
   _ADC_GetConversionResult
   _ADC_IsConversionDone
   _ADC_SelectChannel
   _ADC_StartConversion
   _PWM1_LoadDutyValue
   _SYSTEM_Initialize
     _ADC_Initialize
     _OSCILLATOR_Initialize
     _PIN_MANAGER_Initialize
     _PWM1_Initialize
     _TMR2_Initialize
     _WDT_Initialize
   ___wmul

 Address spaces:
Name               Size   Autos  Total    Cost      Usage
BIGRAM             3F0      0       0       0        0.0%
NULL                 0      0       0       0        0.0%
CODE                 0      0       0       0        0.0%
BITCOMMON            E      0       0       1        0.0%
BITSFR0              0      0       0       1        0.0%
SFR0                 0      0       0       1        0.0%
COMMON               E      8       E       2      100.0%
BITSFR1              0      0       0       2        0.0%
SFR1                 0      0       0       2        0.0%
BITSFR2              0      0       0       3        0.0%
SFR2                 0      0       0       3        0.0%
STACK                0      0       0       3        0.0%
BITBANK0            50      0       0       4        0.0%
BITSFR3              0      0       0       4        0.0%
SFR3                 0      0       0       4        0.0%
BANK0               50      0       0       5        0.0%
BITSFR4              0      0       0       5        0.0%
SFR4                 0      0       0       5        0.0%
BITBANK1            50      0       0       6        0.0%
BITSFR5              0      0       0       6        0.0%
SFR5                 0      0       0       6        0.0%
BANK1               50      0       0       7        0.0%
BITSFR6              0      0       0       7        0.0%
SFR6                 0      0       0       7        0.0%
BITBANK2            50      0       0       8        0.0%
BITSFR7              0      0       0       8        0.0%
SFR7                 0      0       0       8        0.0%
BANK2               50      0       0       9        0.0%
BITSFR8              0      0       0       9        0.0%
SFR8                 0      0       0       9        0.0%
BITBANK3            50      0       0      10        0.0%
BITSFR9              0      0       0      10        0.0%
SFR9                 0      0       0      10        0.0%
BANK3               50      0       0      11        0.0%
BITSFR10             0      0       0      11        0.0%
SFR10                0      0       0      11        0.0%
BITBANK4            50      0       0      12        0.0%
BITSFR11             0      0       0      12        0.0%
SFR11                0      0       0      12        0.0%
BANK4               50      0       0      13        0.0%
BITSFR12             0      0       0      13        0.0%
SFR12                0      0       0      13        0.0%
BITBANK5            50      0       0      14        0.0%
BITSFR13             0      0       0      14        0.0%
SFR13                0      0       0      14        0.0%
BANK5               50      0       0      15        0.0%
BITSFR14             0      0       0      15        0.0%
SFR14                0      0       0      15        0.0%
BITBANK6            50      0       0      16        0.0%
BITSFR15             0      0       0      16        0.0%
SFR15                0      0       0      16        0.0%
BANK6               50      0       0      17        0.0%
BITSFR16             0      0       0      17        0.0%
SFR16                0      0       0      17        0.0%
BITBANK7            50      0       0      18        0.0%
BITSFR17             0      0       0      18        0.0%
SFR17                0      0       0      18        0.0%
BANK7               50      0       0      19        0.0%
BITSFR18             0      0       0      19        0.0%
SFR18                0      0       0      19        0.0%
BITSFR19             0      0       0      20        0.0%
SFR19                0      0       0      20        0.0%
ABS                  0      0       E      20        0.0%
BITBANK8            50      0       0      21        0.0%
BITSFR20             0      0       0      21        0.0%
SFR20                0      0       0      21        0.0%
BANK8               50      0       0      22        0.0%
BITSFR21             0      0       0      22        0.0%
SFR21                0      0       0      22        0.0%
BITBANK9            50      0       0      23        0.0%
BITSFR22             0      0       0      23        0.0%
SFR22                0      0       0      23        0.0%
BANK9               50      0       0      24        0.0%
BITSFR23             0      0       0      24        0.0%
SFR23                0      0       0      24        0.0%
BITBANK10           50      0       0      25        0.0%
BITSFR24             0      0       0      25        0.0%
SFR24                0      0       0      25        0.0%
BANK10              50      0       0      26        0.0%
BITSFR25             0      0       0      26        0.0%
SFR25                0      0       0      26        0.0%
BITBANK11           50      0       0      27        0.0%
BITSFR26             0      0       0      27        0.0%
SFR26                0      0       0      27        0.0%
BANK11              50      0       0      28        0.0%
BITSFR27             0      0       0      28        0.0%
SFR27                0      0       0      28        0.0%
BITBANK12           30      0       0      29        0.0%
BITSFR28             0      0       0      29        0.0%
SFR28                0      0       0      29        0.0%
BANK12              30      0       0      30        0.0%
BITSFR29             0      0       0      30        0.0%
SFR29                0      0       0      30        0.0%
BITSFR30             0      0       0      31        0.0%
SFR30                0      0       0      31        0.0%
DATA                 0      0       E      31        0.0%
BITSFR31             0      0       0      32        0.0%
SFR31                0      0       0      32        0.0%


Microchip Technology PIC Macro Assembler V2.00 build -1524193055 
Symbol Table                                                                                   Sun Oct 07 03:42:38 2018

                     __CFG_CP$OFF 0000                                l31 06B9                                l25 0708  
                              l28 06E8                                l60 0779                                l61 0778  
                              l70 07D3                                l62 0782                                l71 07E6  
                              l63 07A5                                l72 07EB                                l64 07C4  
                              l73 07F4                                l65 07B1                                l74 07F5  
                              l66 07C3                                l58 0764                                l75 07F5  
                              l67 07EC                                l59 07C5                                l92 06DF  
                              l68 07CA                                l69 07C9                                l95 06F5  
                              l98 06B5               ___wmul@multiplicand 0072                               l101 06CE  
                             l104 06C6                               l134 071C                               l150 06D6  
                             l181 0732                               l184 0736                               l185 073E  
                             l178 06BF                               l186 074F                               l187 0754  
                             l630 0711                               l640 06E4                               l632 0714  
                             l624 0709                               l800 0782                               l642 06E6  
                             l634 0718                               l626 070C                               l650 06BE  
                             l810 07AE                               l802 0789                               l660 06D7  
                             l636 06E0                               l628 070F                               l652 06CF  
                             l644 06B6                               l820 07DA                               l812 07B1  
                             l804 0797                               l670 06EA                               l662 06DC  
                             l638 06E3                               l646 06BA                               l654 06D2  
                             l822 07E3                               l806 07A0                               l814 07C5  
                             l680 06CE                               l672 06F4                               l664 06DD  
                             l648 06BD                               l656 06D3                               l824 07E6  
                             l816 07CA                               l808 07A5                               l770 071D  
                             l666 06DE                               l658 06D4                               l818 07D3  
                             l826 07EC                               l772 06C0                               l676 06B3  
                             l668 06F6                               l780 073A                               l774 06C6  
                             l678 06C7                               l782 0743                               l790 0755  
                             l784 0748                               l776 0733                               l792 0764  
                             l786 074F                               l778 0736                               l794 076F  
                             l788 0754                               l796 0774                               l798 0779  
                             u200 0781                               u201 0780                               u210 07A0  
                             u211 079F                               u220 07AE                               u221 07AD  
                             u150 073A                               u230 07D2                               u151 0739  
                             u231 07D1                               u240 07E3                               u145 072C  
                             u241 07E2                               u180 074E                               u181 074D  
                             u165 073F                               u190 0774                               _PR2 001B  
                             u175 0744                               u191 0773                               u257 0769  
                 _TMR2_Initialize 06CF                      __CFG_BORV$LO 0000                               wreg 0009  
                    __CFG_IESO$ON 0000                      __CFG_LVP$OFF 0000           __end_of_PWM1_Initialize 06C0  
                            _LATA 010C                              _LATC 010E                              _TMR2 001A  
                            _WPUA 020C                      __CFG_WRT$OFF 0000                     __CFG_FCMEN$ON 0000  
                            _Temp 007C                              _main 0755                              btemp 007E  
                   __CFG_BOREN$ON 0000                              start 0002               __CFG_PLLEN$DISABLED 0000  
                   __CFG_MCLRE$ON 0000    __size_of_OSCILLATOR_Initialize 0009     __end_of_OSCILLATOR_Initialize 06E9  
                           ?_main 0070                     __CFG_WDTE$OFF 0000                             _T2CON 001C  
                           _DUTYC 007A                             _TRISA 008C                             _TRISC 008E  
__size_of_ADC_GetConversionResult 0007                    _WDT_Initialize 06B6                             status 0003  
                           wtemp0 007E                   __initialization 07F7                      __end_of_main 07F7  
         __end_of_TMR2_Initialize 06D7                    __CFG_LPBOR$OFF 0000                            ??_main 0076  
             __CFG_USBLSCLK$48MHz 0000            __end_of_WDT_Initialize 06BA     __size_of_ADC_IsConversionDone 0008  
                          _ADCON0 009D                            _ADCON1 009E                            _ADCON2 009F  
                          _ACTCON 039B                            _ADRESH 009C                            _ADRESL 009B  
                          _APFCON 011D                            _ANSELA 018C                            _ANSELC 018E  
                          _BORCON 0116                  ?_PWM1_Initialize 0070                            _OSCCON 0099  
                          _WDTCON 0097                    __CFG_PWRTE$OFF 0000                            ___wmul 0733  
                  __CFG_STVREN$ON 0000                   ?_WDT_Initialize 0070                 _SYSTEM_Initialize 06F6  
         __end_of__initialization 07FD                ?_SYSTEM_Initialize 0070       PWM1_LoadDutyValue@dutyValue 0070  
    __size_of_ADC_StartConversion 0003                    __pcstackCOMMON 0070               ??_SYSTEM_Initialize 0070  
              _PWM1_LoadDutyValue 071D                  ?_TMR2_Initialize 0070           _ADC_GetConversionResult 06C0  
                  _OPTION_REGbits 0095               ?_PWM1_LoadDutyValue 0070         __end_of_SYSTEM_Initialize 0709  
            ??_PWM1_LoadDutyValue 0072                        __pmaintext 0755                   __CFG_PLLMULT$4x 0000  
                         ?___wmul 0070           __size_of_ADC_Initialize 0009                           _PWM1DCH 0612  
                         _PWM1DCL 0611                           _OSCTUNE 0098                           _PWM1CON 0613  
                 __size_of___wmul 0022         ??_ADC_GetConversionResult 0072                           __ptext1 0733  
                         __ptext2 06F6                           __ptext3 06B6                           __ptext4 06CF  
                         __ptext5 06BA                           __ptext6 0709                           __ptext7 06E0  
                         __ptext8 06D7                           __ptext9 071D             _OSCILLATOR_Initialize 06E0  
                       _T2CONbits 001C          ??_PIN_MANAGER_Initialize 0070        __size_of_SYSTEM_Initialize 0013  
            end_of_initialization 07FD      __end_of_ADC_IsConversionDone 06CF                  ??_WDT_Initialize 0070  
                __CFG_FOSC$INTOSC 0000               _ADC_StartConversion 06B3          __size_of_PWM1_Initialize 0006  
            ?_ADC_StartConversion 0070                    __end_of___wmul 0755                    _ADC_Initialize 06D7  
          ?_OSCILLATOR_Initialize 0070               start_initialization 07F7   __size_of_PIN_MANAGER_Initialize 0014  
           ??_ADC_StartConversion 0070                         _ValoreADC 0078                          ??___wmul 0074  
          __end_of_ADC_Initialize 06E0                       __pbssCOMMON 0078                         ___latbits 0002  
            _ADC_IsConversionDone 06C7          __size_of_TMR2_Initialize 0008       __size_of_PWM1_LoadDutyValue 0016  
          _PIN_MANAGER_Initialize 0709                 _ADC_SelectChannel 06E9                   ?_ADC_Initialize 0070  
              ?_ADC_SelectChannel 0070                 ??_PWM1_Initialize 0070               ??_ADC_SelectChannel 0070  
           ?_ADC_IsConversionDone 0070                    ___wmul@product 0074                          _LATCbits 010E  
       __end_of_ADC_SelectChannel 06F6                          _PIR1bits 0011                        _ADCON0bits 009D  
               ___wmul@multiplier 0070          ADC_SelectChannel@channel 0071                 ??_TMR2_Initialize 0070  
        ?_ADC_GetConversionResult 0070           ??_OSCILLATOR_Initialize 0070            ??_ADC_IsConversionDone 0070  
                        __ptext10 06B3                          __ptext11 06E9                          __ptext12 06C7  
                        __ptext13 06C0                     __size_of_main 00A2        __size_of_ADC_SelectChannel 000D  
         __size_of_WDT_Initialize 0004       __end_of_ADC_StartConversion 06B6           ?_PIN_MANAGER_Initialize 0070  
 __end_of_ADC_GetConversionResult 06C7                 __CFG_CLKOUTEN$OFF 0000                   _PWM1_Initialize 06BA  
                ??_ADC_Initialize 0070               __CFG_CPUDIV$CLKDIV2 0000    __end_of_PIN_MANAGER_Initialize 071D  
      __end_of_PWM1_LoadDutyValue 0733  
